(lp0
(dp1
S'baseline'
p2
(dp3
S'flow_number'
p4
I0
sS'flow_stats'
p5
(lp6
(dp7
S'src'
p8
I0
sS'timestamp'
p9
I26
sS'dst'
p10
I0
sS'flowCompletionTime'
p11
I3612
sS'id'
p12
I0
sS'size'
p13
cnumpy.core.multiarray
scalar
p14
(cnumpy
dtype
p15
(S'f8'
p16
I0
I1
tp17
Rp18
(I3
S'<'
p19
NNNI-1
I-1
I0
tp20
bS'\x00\x00\x00\x00\x00\x80\\@'
p21
tp22
Rp23
sa(dp24
g8
I0
sg9
I44
sg10
I2
sg11
I5053
sg12
I1
sg13
g14
(g18
S'\x00\x00\x00\x00\x00\x00 @'
p25
tp26
Rp27
sa(dp28
g8
I0
sg9
I79
sg10
I3
sg11
I4494
sg12
I2
sg13
g14
(g18
S'\x00\x00\x00\x00\x00\x00,@'
p29
tp30
Rp31
sa(dp32
g8
I0
sg9
I67
sg10
I6
sg11
I3981
sg12
I3
sg13
g14
(g18
S'\x00\x00\x00\x00\x00@Q@'
p33
tp34
Rp35
sa(dp36
g8
I0
sg9
I50
sg10
I8
sg11
I4958
sg12
I4
sg13
g14
(g18
S'\x00\x00\x00\x00\x00\x00,@'
p37
tp38
Rp39
sa(dp40
g8
I0
sg9
I1
sg10
I9
sg11
I4903
sg12
I5
sg13
g14
(g18
S'\x00\x00\x00\x00\x00\x00.@'
p41
tp42
Rp43
sa(dp44
g8
I0
sg9
I26
sg10
I12
sg11
I4786
sg12
I6
sg13
g14
(g18
S'\x00\x00\x00\x00\x00\x00*@'
p45
tp46
Rp47
sa(dp48
g8
I0
sg9
I11
sg10
I15
sg11
I3103
sg12
I7
sg13
g14
(g18
S'\x00\x00\x00\x00\x00\xc0\\@'
p49
tp50
Rp51
sa(dp52
g8
I1
sg9
I37
sg10
I0
sg11
I4536
sg12
I8
sg13
g14
(g18
S'\x00\x00\x00\x00\x00\x00,@'
p53
tp54
Rp55
sa(dp56
g8
I1
sg9
I16
sg10
I1
sg11
I4370
sg12
I9
sg13
g14
(g18
S'\x00\x00\x00\x00\x00\x80B@'
p57
tp58
Rp59
sa(dp60
g8
I1
sg9
I45
sg10
I2
sg11
I5121
sg12
I10
sg13
g14
(g18
S'\x00\x00\x00\x00\x00\x00\x1c@'
p61
tp62
Rp63
sa(dp64
g8
I1
sg9
I78
sg10
I3
sg11
I4734
sg12
I11
sg13
g14
(g18
S'\x00\x00\x00\x00\x00\x00*@'
p65
tp66
Rp67
sa(dp68
g8
I1
sg9
I53
sg10
I4
sg11
I4949
sg12
I12
sg13
g14
(g18
S'\x00\x00\x00\x00\x00\x00 @'
p69
tp70
Rp71
sa(dp72
g8
I1
sg9
I11
sg10
I5
sg11
I3610
sg12
I13
sg13
g14
(g18
S'\x00\x00\x00\x00\x00@X@'
p73
tp74
Rp75
sa(dp76
g8
I1
sg9
I13
sg10
I8
sg11
I5372
sg12
I14
sg13
g14
(g18
S'\x00\x00\x00\x00\x00\x00\x18@'
p77
tp78
Rp79
sa(dp80
g8
I1
sg9
I97
sg10
I10
sg11
I5200
sg12
I15
sg13
g14
(g18
S'\x00\x00\x00\x00\x00\x00\x08@'
p81
tp82
Rp83
sa(dp84
g8
I1
sg9
I80
sg10
I11
sg11
I3009
sg12
I16
sg13
g14
(g18
S'\x00\x00\x00\x00\x00\x80V@'
p85
tp86
Rp87
sa(dp88
g8
I1
sg9
I75
sg10
I12
sg11
I5153
sg12
I17
sg13
g14
(g18
S'\x00\x00\x00\x00\x00\x00\x10@'
p89
tp90
Rp91
sa(dp92
g8
I1
sg9
I77
sg10
I13
sg11
I3954
sg12
I18
sg13
g14
(g18
S'\x00\x00\x00\x00\x00\x00J@'
p93
tp94
Rp95
sa(dp96
g8
I1
sg9
I72
sg10
I15
sg11
I4838
sg12
I19
sg13
g14
(g18
S'\x00\x00\x00\x00\x00\x005@'
p97
tp98
Rp99
sa(dp100
g8
I2
sg9
I84
sg10
I1
sg11
I5024
sg12
I20
sg13
g14
(g18
S'\x00\x00\x00\x00\x00\x003@'
p101
tp102
Rp103
sa(dp104
g8
I2
sg9
I5
sg10
I2
sg11
I4896
sg12
I21
sg13
g14
(g18
S'\x00\x00\x00\x00\x00\x00(@'
p105
tp106
Rp107
sa(dp108
g8
I2
sg9
I6
sg10
I3
sg11
I4359
sg12
I22
sg13
g14
(g18
S'\x00\x00\x00\x00\x00\x000@'
p109
tp110
Rp111
sa(dp112
g8
I2
sg9
I47
sg10
I6
sg11
I3096
sg12
I23
sg13
g14
(g18
S'\x00\x00\x00\x00\x00\x00b@'
p113
tp114
Rp115
sa(dp116
g8
I2
sg9
I4
sg10
I7
sg11
I4998
sg12
I24
sg13
g14
(g18
S'\x00\x00\x00\x00\x00\x00 @'
p117
tp118
Rp119
sa(dp120
g8
I2
sg9
I25
sg10
I9
sg11
I4684
sg12
I25
sg13
g14
(g18
S'\x00\x00\x00\x00\x00\x00$@'
p121
tp122
Rp123
sa(dp124
g8
I2
sg9
I16
sg10
I10
sg11
I4792
sg12
I26
sg13
g14
(g18
S'\x00\x00\x00\x00\x00\x00"@'
p125
tp126
Rp127
sa(dp128
g8
I2
sg9
I60
sg10
I12
sg11
I4517
sg12
I27
sg13
g14
(g18
S'\x00\x00\x00\x00\x00\x002@'
p129
tp130
Rp131
sa(dp132
g8
I2
sg9
I99
sg10
I14
sg11
I3909
sg12
I28
sg13
g14
(g18
S'\x00\x00\x00\x00\x00\x00=@'
p133
tp134
Rp135
sa(dp136
g8
I2
sg9
I70
sg10
I15
sg11
I5236
sg12
I29
sg13
g14
(g18
S'\x00\x00\x00\x00\x00\x00(@'
p137
tp138
Rp139
sa(dp140
g8
I3
sg9
I28
sg10
I0
sg11
I4793
sg12
I30
sg13
g14
(g18
S'\x00\x00\x00\x00\x00\x006@'
p141
tp142
Rp143
sa(dp144
g8
I3
sg9
I32
sg10
I1
sg11
I4541
sg12
I31
sg13
g14
(g18
S'\x00\x00\x00\x00\x00\x00,@'
p145
tp146
Rp147
sa(dp148
g8
I3
sg9
I9
sg10
I2
sg11
I3176
sg12
I32
sg13
g14
(g18
S'\x00\x00\x00\x00\x00@g@'
p149
tp150
Rp151
sa(dp152
g8
I3
sg9
I75
sg10
I6
sg11
I5226
sg12
I33
sg13
g14
(g18
S'\x00\x00\x00\x00\x00\x00\x1c@'
p153
tp154
Rp155
sa(dp156
g8
I3
sg9
I33
sg10
I7
sg11
I5058
sg12
I34
sg13
g14
(g18
S'\x00\x00\x00\x00\x00\x00\x00@'
p157
tp158
Rp159
sa(dp160
g8
I3
sg9
I98
sg10
I8
sg11
I4616
sg12
I35
sg13
g14
(g18
S'\x00\x00\x00\x00\x00\x00.@'
p161
tp162
Rp163
sa(dp164
g8
I3
sg9
I52
sg10
I9
sg11
I5108
sg12
I36
sg13
g14
(g18
S'\x00\x00\x00\x00\x00\x00\xf0?'
p165
tp166
Rp167
sa(dp168
g8
I3
sg9
I73
sg10
I10
sg11
I4823
sg12
I37
sg13
g14
(g18
S'\x00\x00\x00\x00\x00\x00\x1c@'
p169
tp170
Rp171
sa(dp172
g8
I3
sg9
I2
sg10
I11
sg11
I4998
sg12
I38
sg13
g14
(g18
S'\x00\x00\x00\x00\x00\x00\x18@'
p173
tp174
Rp175
sa(dp176
g8
I3
sg9
I46
sg10
I12
sg11
I3980
sg12
I39
sg13
g14
(g18
S'\x00\x00\x00\x00\x00\x80G@'
p177
tp178
Rp179
sa(dp180
g8
I3
sg9
I37
sg10
I13
sg11
I4329
sg12
I40
sg13
g14
(g18
S'\x00\x00\x00\x00\x00\x001@'
p181
tp182
Rp183
sa(dp184
g8
I4
sg9
I66
sg10
I1
sg11
I4940
sg12
I41
sg13
g14
(g18
S'\x00\x00\x00\x00\x00\x00(@'
p185
tp186
Rp187
sa(dp188
g8
I4
sg9
I98
sg10
I2
sg11
I5201
sg12
I42
sg13
g14
(g18
S'\x00\x00\x00\x00\x00\x00\x14@'
p189
tp190
Rp191
sa(dp192
g8
I4
sg9
I64
sg10
I4
sg11
I4058
sg12
I43
sg13
g14
(g18
S'\x00\x00\x00\x00\x00\xe0a@'
p193
tp194
Rp195
sa(dp196
g8
I4
sg9
I48
sg10
I5
sg11
I5043
sg12
I44
sg13
g14
(g18
S'\x00\x00\x00\x00\x00\x00\x00@'
p197
tp198
Rp199
sa(dp200
g8
I4
sg9
I32
sg10
I7
sg11
I5133
sg12
I45
sg13
g14
(g18
S'\x00\x00\x00\x00\x00\x00\x18@'
p201
tp202
Rp203
sa(dp204
g8
I4
sg9
I24
sg10
I9
sg11
I3609
sg12
I46
sg13
g14
(g18
S'\x00\x00\x00\x00\x00@[@'
p205
tp206
Rp207
sa(dp208
g8
I4
sg9
I63
sg10
I11
sg11
I4834
sg12
I47
sg13
g14
(g18
S'\x00\x00\x00\x00\x00\x00 @'
p209
tp210
Rp211
sa(dp212
g8
I4
sg9
I19
sg10
I13
sg11
I3057
sg12
I48
sg13
g14
(g18
S'\x00\x00\x00\x00\x00@S@'
p213
tp214
Rp215
sa(dp216
g8
I4
sg9
I24
sg10
I15
sg11
I5356
sg12
I49
sg13
g14
(g18
S'\x00\x00\x00\x00\x00\x00\xf0?'
p217
tp218
Rp219
sa(dp220
g8
I5
sg9
I96
sg10
I0
sg11
I5002
sg12
I50
sg13
g14
(g18
S'\x00\x00\x00\x00\x00\x00"@'
p221
tp222
Rp223
sa(dp224
g8
I5
sg9
I49
sg10
I2
sg11
I4665
sg12
I51
sg13
g14
(g18
S'\x00\x00\x00\x00\x00\x00.@'
p225
tp226
Rp227
sa(dp228
g8
I5
sg9
I22
sg10
I4
sg11
I5298
sg12
I52
sg13
g14
(g18
S'\x00\x00\x00\x00\x00\x00:@'
p229
tp230
Rp231
sa(dp232
g8
I5
sg9
I61
sg10
I6
sg11
I4937
sg12
I53
sg13
g14
(g18
S'\x00\x00\x00\x00\x00\x00\x10@'
p233
tp234
Rp235
sa(dp236
g8
I5
sg9
I62
sg10
I7
sg11
I4384
sg12
I54
sg13
g14
(g18
S'\x00\x00\x00\x00\x00@X@'
p237
tp238
Rp239
sa(dp240
g8
I5
sg9
I75
sg10
I8
sg11
I5106
sg12
I55
sg13
g14
(g18
S'\x00\x00\x00\x00\x00\x006@'
p241
tp242
Rp243
sa(dp244
g8
I5
sg9
I96
sg10
I10
sg11
I2982
sg12
I56
sg13
g14
(g18
S'\x00\x00\x00\x00\x00\xc0S@'
p245
tp246
Rp247
sa(dp248
g8
I5
sg9
I40
sg10
I11
sg11
I3967
sg12
I57
sg13
g14
(g18
S'\x00\x00\x00\x00\x00\x00<@'
p249
tp250
Rp251
sa(dp252
g8
I5
sg9
I4
sg10
I12
sg11
I3566
sg12
I58
sg13
g14
(g18
S'\x00\x00\x00\x00\x00\x00G@'
p253
tp254
Rp255
sa(dp256
g8
I6
sg9
I68
sg10
I1
sg11
I4833
sg12
I59
sg13
g14
(g18
S'\x00\x00\x00\x00\x00\x00(@'
p257
tp258
Rp259
sa(dp260
g8
I6
sg9
I68
sg10
I2
sg11
I4936
sg12
I60
sg13
g14
(g18
S'\x00\x00\x00\x00\x00\x00$@'
p261
tp262
Rp263
sa(dp264
g8
I6
sg9
I73
sg10
I3
sg11
I3021
sg12
I61
sg13
g14
(g18
S'\x00\x00\x00\x00\x00\xc0W@'
p265
tp266
Rp267
sa(dp268
g8
I6
sg9
I21
sg10
I5
sg11
I5140
sg12
I62
sg13
g14
(g18
S'\x00\x00\x00\x00\x00\x00\x00@'
p269
tp270
Rp271
sa(dp272
g8
I6
sg9
I52
sg10
I7
sg11
I3949
sg12
I63
sg13
g14
(g18
S'\x00\x00\x00\x00\x00\x006@'
p273
tp274
Rp275
sa(dp276
g8
I6
sg9
I57
sg10
I9
sg11
I5323
sg12
I64
sg13
g14
(g18
S'\x00\x00\x00\x00\x00\x00\xf0?'
p277
tp278
Rp279
sa(dp280
g8
I6
sg9
I47
sg10
I11
sg11
I4390
sg12
I65
sg13
g14
(g18
S'\x00\x00\x00\x00\x00\x00V@'
p281
tp282
Rp283
sa(dp284
g8
I6
sg9
I34
sg10
I13
sg11
I4542
sg12
I66
sg13
g14
(g18
S'\x00\x00\x00\x00\x00\x001@'
p285
tp286
Rp287
sa(dp288
g8
I6
sg9
I71
sg10
I14
sg11
I3535
sg12
I67
sg13
g14
(g18
S'\x00\x00\x00\x00\x00\x80T@'
p289
tp290
Rp291
sa(dp292
g8
I7
sg9
I21
sg10
I0
sg11
I3051
sg12
I68
sg13
g14
(g18
S'\x00\x00\x00\x00\x00@R@'
p293
tp294
Rp295
sa(dp296
g8
I7
sg9
I86
sg10
I2
sg11
I5828
sg12
I69
sg13
g14
(g18
S'\x00\x00\x00\x00\x00\x00$@'
p297
tp298
Rp299
sa(dp300
g8
I7
sg9
I26
sg10
I3
sg11
I4683
sg12
I70
sg13
g14
(g18
S'\x00\x00\x00\x00\x00\x00$@'
p301
tp302
Rp303
sa(dp304
g8
I7
sg9
I20
sg10
I4
sg11
I3550
sg12
I71
sg13
g14
(g18
S'\x00\x00\x00\x00\x00\x00G@'
p305
tp306
Rp307
sa(dp308
g8
I7
sg9
I35
sg10
I5
sg11
I4550
sg12
I72
sg13
g14
(g18
S'\x00\x00\x00\x00\x00\x00:@'
p309
tp310
Rp311
sa(dp312
g8
I7
sg9
I96
sg10
I7
sg11
I5222
sg12
I73
sg13
g14
(g18
S'\x00\x00\x00\x00\x00\x008@'
p313
tp314
Rp315
sa(dp316
g8
I7
sg9
I7
sg10
I8
sg11
I5722
sg12
I74
sg13
g14
(g18
S'\x00\x00\x00\x00\x00\x00.@'
p317
tp318
Rp319
sa(dp320
g8
I7
sg9
I56
sg10
I9
sg11
I5046
sg12
I75
sg13
g14
(g18
S'\x00\x00\x00\x00\x00\x00*@'
p321
tp322
Rp323
sa(dp324
g8
I7
sg9
I79
sg10
I10
sg11
I4001
sg12
I76
sg13
g14
(g18
S'\x00\x00\x00\x00\x00@Y@'
p325
tp326
Rp327
sa(dp328
g8
I7
sg9
I26
sg10
I12
sg11
I5141
sg12
I77
sg13
g14
(g18
S'\x00\x00\x00\x00\x00\x00 @'
p329
tp330
Rp331
sa(dp332
g8
I7
sg9
I46
sg10
I14
sg11
I4385
sg12
I78
sg13
g14
(g18
S'\x00\x00\x00\x00\x00\x80T@'
p333
tp334
Rp335
sa(dp336
g8
I8
sg9
I3
sg10
I4
sg11
I3096
sg12
I79
sg13
g14
(g18
S'\x00\x00\x00\x00\x00\x00Y@'
p337
tp338
Rp339
sa(dp340
g8
I8
sg9
I97
sg10
I5
sg11
I3947
sg12
I80
sg13
g14
(g18
S'\x00\x00\x00\x00\x00@P@'
p341
tp342
Rp343
sa(dp344
g8
I8
sg9
I98
sg10
I6
sg11
I4615
sg12
I81
sg13
g14
(g18
S'\x00\x00\x00\x00\x00\x00,@'
p345
tp346
Rp347
sa(dp348
g8
I8
sg9
I3
sg10
I7
sg11
I3579
sg12
I82
sg13
g14
(g18
S'\x00\x00\x00\x00\x00\x00M@'
p349
tp350
Rp351
sa(dp352
g8
I8
sg9
I41
sg10
I8
sg11
I4397
sg12
I83
sg13
g14
(g18
S'\x00\x00\x00\x00\x00@V@'
p353
tp354
Rp355
sa(dp356
g8
I8
sg9
I41
sg10
I9
sg11
I4956
sg12
I84
sg13
g14
(g18
S'\x00\x00\x00\x00\x00\x00\x08@'
p357
tp358
Rp359
sa(dp360
g8
I8
sg9
I12
sg10
I10
sg11
I5084
sg12
I85
sg13
g14
(g18
S'\x00\x00\x00\x00\x00\x00\x1c@'
p361
tp362
Rp363
sa(dp364
g8
I8
sg9
I77
sg10
I14
sg11
I5083
sg12
I86
sg13
g14
(g18
S'\x00\x00\x00\x00\x00\x00\xf0?'
p365
tp366
Rp367
sa(dp368
g8
I9
sg9
I14
sg10
I1
sg11
I4794
sg12
I87
sg13
g14
(g18
S'\x00\x00\x00\x00\x00\x00"@'
p369
tp370
Rp371
sa(dp372
g8
I9
sg9
I90
sg10
I2
sg11
I5537
sg12
I88
sg13
g14
(g18
S'\x00\x00\x00\x00\x00\x00\x08@'
p373
tp374
Rp375
sa(dp376
g8
I9
sg9
I34
sg10
I4
sg11
I4545
sg12
I89
sg13
g14
(g18
S'\x00\x00\x00\x00\x00\x004@'
p377
tp378
Rp379
sa(dp380
g8
I9
sg9
I34
sg10
I5
sg11
I4862
sg12
I90
sg13
g14
(g18
S'\x00\x00\x00\x00\x00\x00\x1c@'
p381
tp382
Rp383
sa(dp384
g8
I9
sg9
I89
sg10
I6
sg11
I4328
sg12
I91
sg13
g14
(g18
S'\x00\x00\x00\x00\x00\x00Q@'
p385
tp386
Rp387
sa(dp388
g8
I9
sg9
I51
sg10
I7
sg11
I4661
sg12
I92
sg13
g14
(g18
S'\x00\x00\x00\x00\x00\x00*@'
p389
tp390
Rp391
sa(dp392
g8
I9
sg9
I42
sg10
I8
sg11
I3995
sg12
I93
sg13
g14
(g18
S'\x00\x00\x00\x00\x00\x00M@'
p393
tp394
Rp395
sa(dp396
g8
I9
sg9
I66
sg10
I9
sg11
I5229
sg12
I94
sg13
g14
(g18
S'\x00\x00\x00\x00\x00\x00\xf0?'
p397
tp398
Rp399
sa(dp400
g8
I9
sg9
I47
sg10
I10
sg11
I3549
sg12
I95
sg13
g14
(g18
S'\x00\x00\x00\x00\x00\x00R@'
p401
tp402
Rp403
sa(dp404
g8
I9
sg9
I47
sg10
I11
sg11
I5337
sg12
I96
sg13
g14
(g18
S'\x00\x00\x00\x00\x00\x00\x14@'
p405
tp406
Rp407
sa(dp408
g8
I9
sg9
I50
sg10
I13
sg11
I4953
sg12
I97
sg13
g14
(g18
S'\x00\x00\x00\x00\x00\x00"@'
p409
tp410
Rp411
sa(dp412
g8
I9
sg9
I34
sg10
I14
sg11
I3047
sg12
I98
sg13
g14
(g18
S'\x00\x00\x00\x00\x00\x80T@'
p413
tp414
Rp415
sa(dp416
g8
I10
sg9
I6
sg10
I1
sg11
I3994
sg12
I99
sg13
g14
(g18
S'\x00\x00\x00\x00\x00\x005@'
p417
tp418
Rp419
sa(dp420
g8
I10
sg9
I59
sg10
I2
sg11
I4383
sg12
I100
sg13
g14
(g18
S'\x00\x00\x00\x00\x00@W@'
p421
tp422
Rp423
sa(dp424
g8
I10
sg9
I5
sg10
I4
sg11
I5155
sg12
I101
sg13
g14
(g18
S'\x00\x00\x00\x00\x00\x00\xf0?'
p425
tp426
Rp427
sa(dp428
g8
I10
sg9
I66
sg10
I7
sg11
I2990
sg12
I102
sg13
g14
(g18
S'\x00\x00\x00\x00\x00\x80L@'
p429
tp430
Rp431
sa(dp432
g8
I10
sg9
I2
sg10
I8
sg11
I5091
sg12
I103
sg13
g14
(g18
S'\x00\x00\x00\x00\x00\x00\x10@'
p433
tp434
Rp435
sa(dp436
g8
I10
sg9
I12
sg10
I10
sg11
I4564
sg12
I104
sg13
g14
(g18
S'\x00\x00\x00\x00\x00\x001@'
p437
tp438
Rp439
sa(dp440
g8
I10
sg9
I49
sg10
I11
sg11
I5588
sg12
I105
sg13
g14
(g18
S'\x00\x00\x00\x00\x00\x00*@'
p441
tp442
Rp443
sa(dp444
g8
I10
sg9
I49
sg10
I12
sg11
I4672
sg12
I106
sg13
g14
(g18
S'\x00\x00\x00\x00\x00\x006@'
p445
tp446
Rp447
sa(dp448
g8
I10
sg9
I57
sg10
I13
sg11
I3511
sg12
I107
sg13
g14
(g18
S'\x00\x00\x00\x00\x00\x00F@'
p449
tp450
Rp451
sa(dp452
g8
I10
sg9
I86
sg10
I14
sg11
I4912
sg12
I108
sg13
g14
(g18
S'\x00\x00\x00\x00\x00\x00\x10@'
p453
tp454
Rp455
sa(dp456
g8
I11
sg9
I92
sg10
I0
sg11
I5072
sg12
I109
sg13
g14
(g18
S'\x00\x00\x00\x00\x00\x00\x14@'
p457
tp458
Rp459
sa(dp460
g8
I11
sg9
I54
sg10
I2
sg11
I3990
sg12
I110
sg13
g14
(g18
S'\x00\x00\x00\x00\x00@P@'
p461
tp462
Rp463
sa(dp464
g8
I11
sg9
I39
sg10
I3
sg11
I3522
sg12
I111
sg13
g14
(g18
S'\x00\x00\x00\x00\x00\x80B@'
p465
tp466
Rp467
sa(dp468
g8
I11
sg9
I66
sg10
I4
sg11
I4836
sg12
I112
sg13
g14
(g18
S'\x00\x00\x00\x00\x00\x00*@'
p469
tp470
Rp471
sa(dp472
g8
I11
sg9
I27
sg10
I5
sg11
I3045
sg12
I113
sg13
g14
(g18
S'\x00\x00\x00\x00\x00@R@'
p473
tp474
Rp475
sa(dp476
g8
I11
sg9
I50
sg10
I6
sg11
I4762
sg12
I114
sg13
g14
(g18
S'\x00\x00\x00\x00\x00\x00*@'
p477
tp478
Rp479
sa(dp480
g8
I11
sg9
I19
sg10
I8
sg11
I5212
sg12
I115
sg13
g14
(g18
S'\x00\x00\x00\x00\x00\x00\x1c@'
p481
tp482
Rp483
sa(dp484
g8
I11
sg9
I72
sg10
I10
sg11
I4329
sg12
I116
sg13
g14
(g18
S'\x00\x00\x00\x00\x00\x00J@'
p485
tp486
Rp487
sa(dp488
g8
I11
sg9
I13
sg10
I11
sg11
I5431
sg12
I117
sg13
g14
(g18
S'\x00\x00\x00\x00\x00\x00$@'
p489
tp490
Rp491
sa(dp492
g8
I11
sg9
I61
sg10
I12
sg11
I4947
sg12
I118
sg13
g14
(g18
S'\x00\x00\x00\x00\x00\x00,@'
p493
tp494
Rp495
sa(dp496
g8
I11
sg9
I33
sg10
I13
sg11
I5060
sg12
I119
sg13
g14
(g18
S'\x00\x00\x00\x00\x00\x00\x10@'
p497
tp498
Rp499
sa(dp500
g8
I11
sg9
I24
sg10
I15
sg11
I4555
sg12
I120
sg13
g14
(g18
S'\x00\x00\x00\x00\x00\x004@'
p501
tp502
Rp503
sa(dp504
g8
I12
sg9
I49
sg10
I0
sg11
I4010
sg12
I121
sg13
g14
(g18
S'\x00\x00\x00\x00\x00\x00T@'
p505
tp506
Rp507
sa(dp508
g8
I12
sg9
I24
sg10
I3
sg11
I4874
sg12
I122
sg13
g14
(g18
S'\x00\x00\x00\x00\x00\x00"@'
p509
tp510
Rp511
sa(dp512
g8
I12
sg9
I5
sg10
I5
sg11
I4992
sg12
I123
sg13
g14
(g18
S'\x00\x00\x00\x00\x00\x00\x08@'
p513
tp514
Rp515
sa(dp516
g8
I12
sg9
I84
sg10
I7
sg11
I5306
sg12
I124
sg13
g14
(g18
S'\x00\x00\x00\x00\x00\x00&@'
p517
tp518
Rp519
sa(dp520
g8
I12
sg9
I97
sg10
I9
sg11
I2994
sg12
I125
sg13
g14
(g18
S'\x00\x00\x00\x00\x00\x00W@'
p521
tp522
Rp523
sa(dp524
g8
I12
sg9
I77
sg10
I10
sg11
I5153
sg12
I126
sg13
g14
(g18
S'\x00\x00\x00\x00\x00\x00\x18@'
p525
tp526
Rp527
sa(dp528
g8
I12
sg9
I85
sg10
I11
sg11
I4556
sg12
I127
sg13
g14
(g18
S'\x00\x00\x00\x00\x00\x80T@'
p529
tp530
Rp531
sa(dp532
g8
I12
sg9
I50
sg10
I12
sg11
I4318
sg12
I128
sg13
g14
(g18
S'\x00\x00\x00\x00\x00\x003@'
p533
tp534
Rp535
sa(dp536
g8
I12
sg9
I69
sg10
I13
sg11
I4740
sg12
I129
sg13
g14
(g18
S'\x00\x00\x00\x00\x00\x00$@'
p537
tp538
Rp539
sa(dp540
g8
I12
sg9
I1
sg10
I14
sg11
I4716
sg12
I130
sg13
g14
(g18
S'\x00\x00\x00\x00\x00\x002@'
p541
tp542
Rp543
sa(dp544
g8
I12
sg9
I18
sg10
I15
sg11
I3581
sg12
I131
sg13
g14
(g18
S'\x00\x00\x00\x00\x00\xc0R@'
p545
tp546
Rp547
sa(dp548
g8
I13
sg9
I34
sg10
I1
sg11
I4679
sg12
I132
sg13
g14
(g18
S'\x00\x00\x00\x00\x00\x00,@'
p549
tp550
Rp551
sa(dp552
g8
I13
sg9
I92
sg10
I2
sg11
I4481
sg12
I133
sg13
g14
(g18
S'\x00\x00\x00\x00\x00\x00,@'
p553
tp554
Rp555
sa(dp556
g8
I13
sg9
I86
sg10
I3
sg11
I4915
sg12
I134
sg13
g14
(g18
S'\x00\x00\x00\x00\x00\x00\x1c@'
p557
tp558
Rp559
sa(dp560
g8
I13
sg9
I47
sg10
I4
sg11
I5395
sg12
I135
sg13
g14
(g18
S'\x00\x00\x00\x00\x00\x00 @'
p561
tp562
Rp563
sa(dp564
g8
I13
sg9
I77
sg10
I5
sg11
I4303
sg12
I136
sg13
g14
(g18
S'\x00\x00\x00\x00\x00\x00?@'
p565
tp566
Rp567
sa(dp568
g8
I13
sg9
I88
sg10
I6
sg11
I4815
sg12
I137
sg13
g14
(g18
S'\x00\x00\x00\x00\x00\x00,@'
p569
tp570
Rp571
sa(dp572
g8
I13
sg9
I80
sg10
I8
sg11
I3067
sg12
I138
sg13
g14
(g18
S'\x00\x00\x00\x00\x00\x80b@'
p573
tp574
Rp575
sa(dp576
g8
I13
sg9
I2
sg10
I9
sg11
I4015
sg12
I139
sg13
g14
(g18
S'\x00\x00\x00\x00\x00\x00C@'
p577
tp578
Rp579
sa(dp580
g8
I13
sg9
I44
sg10
I10
sg11
I5128
sg12
I140
sg13
g14
(g18
S'\x00\x00\x00\x00\x00\x00*@'
p581
tp582
Rp583
sa(dp584
g8
I13
sg9
I88
sg10
I12
sg11
I5010
sg12
I141
sg13
g14
(g18
S'\x00\x00\x00\x00\x00\x00"@'
p585
tp586
Rp587
sa(dp588
g8
I13
sg9
I38
sg10
I14
sg11
I5198
sg12
I142
sg13
g14
(g18
S'\x00\x00\x00\x00\x00\x00(@'
p589
tp590
Rp591
sa(dp592
g8
I13
sg9
I26
sg10
I15
sg11
I4784
sg12
I143
sg13
g14
(g18
S'\x00\x00\x00\x00\x00\x00&@'
p593
tp594
Rp595
sa(dp596
g8
I14
sg9
I57
sg10
I0
sg11
I4663
sg12
I144
sg13
g14
(g18
S'\x00\x00\x00\x00\x00\x005@'
p597
tp598
Rp599
sa(dp600
g8
I14
sg9
I4
sg10
I1
sg11
I3593
sg12
I145
sg13
g14
(g18
S'\x00\x00\x00\x00\x00@R@'
p601
tp602
Rp603
sa(dp604
g8
I14
sg9
I99
sg10
I4
sg11
I4998
sg12
I146
sg13
g14
(g18
S'\x00\x00\x00\x00\x00\x00 @'
p605
tp606
Rp607
sa(dp608
g8
I14
sg9
I9
sg10
I5
sg11
I4799
sg12
I147
sg13
g14
(g18
S'\x00\x00\x00\x00\x00\x00"@'
p609
tp610
Rp611
sa(dp612
g8
I14
sg9
I57
sg10
I6
sg11
I4516
sg12
I148
sg13
g14
(g18
S'\x00\x00\x00\x00\x00\x00,@'
p613
tp614
Rp615
sa(dp616
g8
I14
sg9
I47
sg10
I9
sg11
I4338
sg12
I149
sg13
g14
(g18
S'\x00\x00\x00\x00\x00\x00B@'
p617
tp618
Rp619
sa(dp620
g8
I14
sg9
I31
sg10
I12
sg11
I3062
sg12
I150
sg13
g14
(g18
S'\x00\x00\x00\x00\x00\x80W@'
p621
tp622
Rp623
sa(dp624
g8
I14
sg9
I3
sg10
I13
sg11
I4897
sg12
I151
sg13
g14
(g18
S'\x00\x00\x00\x00\x00\x00&@'
p625
tp626
Rp627
sa(dp628
g8
I14
sg9
I83
sg10
I15
sg11
I3958
sg12
I152
sg13
g14
(g18
S'\x00\x00\x00\x00\x00\x00O@'
p629
tp630
Rp631
sa(dp632
g8
I15
sg9
I48
sg10
I0
sg11
I4856
sg12
I153
sg13
g14
(g18
S'\x00\x00\x00\x00\x00\x00.@'
p633
tp634
Rp635
sa(dp636
g8
I15
sg9
I79
sg10
I1
sg11
I3008
sg12
I154
sg13
g14
(g18
S'\x00\x00\x00\x00\x00\x00V@'
p637
tp638
Rp639
sa(dp640
g8
I15
sg9
I3
sg10
I3
sg11
I4001
sg12
I155
sg13
g14
(g18
S'\x00\x00\x00\x00\x00\x009@'
p641
tp642
Rp643
sa(dp644
g8
I15
sg9
I87
sg10
I6
sg11
I5427
sg12
I156
sg13
g14
(g18
S'\x00\x00\x00\x00\x00\x80A@'
p645
tp646
Rp647
sa(dp648
g8
I15
sg9
I68
sg10
I8
sg11
I5237
sg12
I157
sg13
g14
(g18
S'\x00\x00\x00\x00\x00\x00&@'
p649
tp650
Rp651
sa(dp652
g8
I15
sg9
I83
sg10
I9
sg11
I4727
sg12
I158
sg13
g14
(g18
S'\x00\x00\x00\x00\x00\x00&@'
p653
tp654
Rp655
sa(dp656
g8
I15
sg9
I20
sg10
I11
sg11
I3552
sg12
I159
sg13
g14
(g18
S'\x00\x00\x00\x00\x00\x00H@'
p657
tp658
Rp659
sa(dp660
g8
I15
sg9
I19
sg10
I13
sg11
I4694
sg12
I160
sg13
g14
(g18
S'\x00\x00\x00\x00\x00\x00,@'
p661
tp662
Rp663
sa(dp664
g8
I15
sg9
I74
sg10
I14
sg11
I4506
sg12
I161
sg13
g14
(g18
S'\x00\x00\x00\x00\x00\x005@'
p665
tp666
Rp667
sa(dp668
g8
I15
sg9
I80
sg10
I15
sg11
I4332
sg12
I162
sg13
g14
(g18
S'\x00\x00\x00\x00\x00\x80O@'
p669
tp670
Rp671
sa(dp672
g8
I0
sg9
I126
sg10
I0
sg11
I3626
sg12
I163
sg13
g14
(g18
S'\x00\x00\x00\x00\x00\x80\\@'
p673
tp674
Rp675
sa(dp676
g8
I0
sg9
I144
sg10
I2
sg11
I4961
sg12
I164
sg13
g14
(g18
S'\x00\x00\x00\x00\x00\x00 @'
p677
tp678
Rp679
sa(dp680
g8
I0
sg9
I179
sg10
I3
sg11
I4408
sg12
I165
sg13
g14
(g18
S'\x00\x00\x00\x00\x00\x00,@'
p681
tp682
Rp683
sa(dp684
g8
I0
sg9
I167
sg10
I6
sg11
I3950
sg12
I166
sg13
g14
(g18
S'\x00\x00\x00\x00\x00@Q@'
p685
tp686
Rp687
sa(dp688
g8
I0
sg9
I150
sg10
I8
sg11
I4872
sg12
I167
sg13
g14
(g18
S'\x00\x00\x00\x00\x00\x00,@'
p689
tp690
Rp691
sa(dp692
g8
I0
sg9
I101
sg10
I9
sg11
I4818
sg12
I168
sg13
g14
(g18
S'\x00\x00\x00\x00\x00\x00.@'
p693
tp694
Rp695
sa(dp696
g8
I0
sg9
I126
sg10
I12
sg11
I4699
sg12
I169
sg13
g14
(g18
S'\x00\x00\x00\x00\x00\x00*@'
p697
tp698
Rp699
sa(dp700
g8
I0
sg9
I111
sg10
I15
sg11
I3118
sg12
I170
sg13
g14
(g18
S'\x00\x00\x00\x00\x00\xc0\\@'
p701
tp702
Rp703
sa(dp704
g8
I1
sg9
I137
sg10
I0
sg11
I4450
sg12
I171
sg13
g14
(g18
S'\x00\x00\x00\x00\x00\x00,@'
p705
tp706
Rp707
sa(dp708
g8
I1
sg9
I116
sg10
I1
sg11
I4307
sg12
I172
sg13
g14
(g18
S'\x00\x00\x00\x00\x00\x80B@'
p709
tp710
Rp711
sa(dp712
g8
I1
sg9
I145
sg10
I2
sg11
I5028
sg12
I173
sg13
g14
(g18
S'\x00\x00\x00\x00\x00\x00\x1c@'
p713
tp714
Rp715
sa(dp716
g8
I1
sg9
I178
sg10
I3
sg11
I4647
sg12
I174
sg13
g14
(g18
S'\x00\x00\x00\x00\x00\x00*@'
p717
tp718
Rp719
sa(dp720
g8
I1
sg9
I153
sg10
I4
sg11
I4857
sg12
I175
sg13
g14
(g18
S'\x00\x00\x00\x00\x00\x00 @'
p721
tp722
Rp723
sa(dp724
g8
I1
sg9
I111
sg10
I5
sg11
I3607
sg12
I176
sg13
g14
(g18
S'\x00\x00\x00\x00\x00@X@'
p725
tp726
Rp727
sa(dp728
g8
I1
sg9
I113
sg10
I8
sg11
I5278
sg12
I177
sg13
g14
(g18
S'\x00\x00\x00\x00\x00\x00\x18@'
p729
tp730
Rp731
sa(dp732
g8
I1
sg9
I197
sg10
I10
sg11
I5103
sg12
I178
sg13
g14
(g18
S'\x00\x00\x00\x00\x00\x00\x08@'
p733
tp734
Rp735
sa(dp736
g8
I1
sg9
I180
sg10
I11
sg11
I2999
sg12
I179
sg13
g14
(g18
S'\x00\x00\x00\x00\x00\x80V@'
p737
tp738
Rp739
sa(dp740
g8
I1
sg9
I175
sg10
I12
sg11
I5057
sg12
I180
sg13
g14
(g18
S'\x00\x00\x00\x00\x00\x00\x10@'
p741
tp742
Rp743
sa(dp744
g8
I1
sg9
I177
sg10
I13
sg11
I3906
sg12
I181
sg13
g14
(g18
S'\x00\x00\x00\x00\x00\x00J@'
p745
tp746
Rp747
sa(dp748
g8
I1
sg9
I172
sg10
I15
sg11
I4759
sg12
I182
sg13
g14
(g18
S'\x00\x00\x00\x00\x00\x005@'
p749
tp750
Rp751
sa(dp752
g8
I2
sg9
I184
sg10
I1
sg11
I4943
sg12
I183
sg13
g14
(g18
S'\x00\x00\x00\x00\x00\x003@'
p753
tp754
Rp755
sa(dp756
g8
I2
sg9
I105
sg10
I2
sg11
I4808
sg12
I184
sg13
g14
(g18
S'\x00\x00\x00\x00\x00\x00(@'
p757
tp758
Rp759
sa(dp760
g8
I2
sg9
I106
sg10
I3
sg11
I4275
sg12
I185
sg13
g14
(g18
S'\x00\x00\x00\x00\x00\x000@'
p761
tp762
Rp763
sa(dp764
g8
I2
sg9
I147
sg10
I6
sg11
I3140
sg12
I186
sg13
g14
(g18
S'\x00\x00\x00\x00\x00\x00b@'
p765
tp766
Rp767
sa(dp768
g8
I2
sg9
I104
sg10
I7
sg11
I4906
sg12
I187
sg13
g14
(g18
S'\x00\x00\x00\x00\x00\x00 @'
p769
tp770
Rp771
sa(dp772
g8
I2
sg9
I125
sg10
I9
sg11
I4594
sg12
I188
sg13
g14
(g18
S'\x00\x00\x00\x00\x00\x00$@'
p773
tp774
Rp775
sa(dp776
g8
I2
sg9
I116
sg10
I10
sg11
I4701
sg12
I189
sg13
g14
(g18
S'\x00\x00\x00\x00\x00\x00"@'
p777
tp778
Rp779
sa(dp780
g8
I2
sg9
I160
sg10
I12
sg11
I4435
sg12
I190
sg13
g14
(g18
S'\x00\x00\x00\x00\x00\x002@'
p781
tp782
Rp783
sa(dp784
g8
I2
sg9
I199
sg10
I14
sg11
I3838
sg12
I191
sg13
g14
(g18
S'\x00\x00\x00\x00\x00\x00=@'
p785
tp786
Rp787
sa(dp788
g8
I2
sg9
I170
sg10
I15
sg11
I5148
sg12
I192
sg13
g14
(g18
S'\x00\x00\x00\x00\x00\x00(@'
p789
tp790
Rp791
sa(dp792
g8
I3
sg9
I128
sg10
I0
sg11
I4715
sg12
I193
sg13
g14
(g18
S'\x00\x00\x00\x00\x00\x006@'
p793
tp794
Rp795
sa(dp796
g8
I3
sg9
I132
sg10
I1
sg11
I4455
sg12
I194
sg13
g14
(g18
S'\x00\x00\x00\x00\x00\x00,@'
p797
tp798
Rp799
sa(dp800
g8
I3
sg9
I109
sg10
I2
sg11
I3262
sg12
I195
sg13
g14
(g18
S'\x00\x00\x00\x00\x00@g@'
p801
tp802
Rp803
sa(dp804
g8
I3
sg9
I175
sg10
I6
sg11
I5133
sg12
I196
sg13
g14
(g18
S'\x00\x00\x00\x00\x00\x00\x1c@'
p805
tp806
Rp807
sa(dp808
g8
I3
sg9
I133
sg10
I7
sg11
I4960
sg12
I197
sg13
g14
(g18
S'\x00\x00\x00\x00\x00\x00\x00@'
p809
tp810
Rp811
sa(dp812
g8
I3
sg9
I198
sg10
I8
sg11
I4531
sg12
I198
sg13
g14
(g18
S'\x00\x00\x00\x00\x00\x00.@'
p813
tp814
Rp815
sa(dp816
g8
I3
sg9
I152
sg10
I9
sg11
I5009
sg12
I199
sg13
g14
(g18
S'\x00\x00\x00\x00\x00\x00\xf0?'
p817
tp818
Rp819
sa(dp820
g8
I3
sg9
I173
sg10
I10
sg11
I4730
sg12
I200
sg13
g14
(g18
S'\x00\x00\x00\x00\x00\x00\x1c@'
p821
tp822
Rp823
sa(dp824
g8
I3
sg9
I102
sg10
I11
sg11
I4904
sg12
I201
sg13
g14
(g18
S'\x00\x00\x00\x00\x00\x00\x18@'
p825
tp826
Rp827
sa(dp828
g8
I3
sg9
I146
sg10
I12
sg11
I3927
sg12
I202
sg13
g14
(g18
S'\x00\x00\x00\x00\x00\x80G@'
p829
tp830
Rp831
sa(dp832
g8
I3
sg9
I137
sg10
I13
sg11
I4246
sg12
I203
sg13
g14
(g18
S'\x00\x00\x00\x00\x00\x001@'
p833
tp834
Rp835
sa(dp836
g8
I4
sg9
I166
sg10
I1
sg11
I4852
sg12
I204
sg13
g14
(g18
S'\x00\x00\x00\x00\x00\x00(@'
p837
tp838
Rp839
sa(dp840
g8
I4
sg9
I198
sg10
I2
sg11
I5106
sg12
I205
sg13
g14
(g18
S'\x00\x00\x00\x00\x00\x00\x14@'
p841
tp842
Rp843
sa(dp844
g8
I4
sg9
I164
sg10
I4
sg11
I4101
sg12
I206
sg13
g14
(g18
S'\x00\x00\x00\x00\x00\xe0a@'
p845
tp846
Rp847
sa(dp848
g8
I4
sg9
I148
sg10
I5
sg11
I4945
sg12
I207
sg13
g14
(g18
S'\x00\x00\x00\x00\x00\x00\x00@'
p849
tp850
Rp851
sa(dp852
g8
I4
sg9
I132
sg10
I7
sg11
I5039
sg12
I208
sg13
g14
(g18
S'\x00\x00\x00\x00\x00\x00\x18@'
p853
tp854
Rp855
sa(dp856
g8
I4
sg9
I124
sg10
I9
sg11
I3618
sg12
I209
sg13
g14
(g18
S'\x00\x00\x00\x00\x00@[@'
p857
tp858
Rp859
sa(dp860
g8
I4
sg9
I163
sg10
I11
sg11
I4742
sg12
I210
sg13
g14
(g18
S'\x00\x00\x00\x00\x00\x00 @'
p861
tp862
Rp863
sa(dp864
g8
I4
sg9
I119
sg10
I13
sg11
I3034
sg12
I211
sg13
g14
(g18
S'\x00\x00\x00\x00\x00@S@'
p865
tp866
Rp867
sa(dp868
g8
I4
sg9
I124
sg10
I15
sg11
I5257
sg12
I212
sg13
g14
(g18
S'\x00\x00\x00\x00\x00\x00\xf0?'
p869
tp870
Rp871
sa(dp872
g8
I5
sg9
I196
sg10
I0
sg11
I4911
sg12
I213
sg13
g14
(g18
S'\x00\x00\x00\x00\x00\x00"@'
p873
tp874
Rp875
sa(dp876
g8
I5
sg9
I149
sg10
I2
sg11
I4580
sg12
I214
sg13
g14
(g18
S'\x00\x00\x00\x00\x00\x00.@'
p877
tp878
Rp879
sa(dp880
g8
I5
sg9
I122
sg10
I4
sg11
I5224
sg12
I215
sg13
g14
(g18
S'\x00\x00\x00\x00\x00\x00:@'
p881
tp882
Rp883
sa(dp884
g8
I5
sg9
I161
sg10
I6
sg11
I4841
sg12
I216
sg13
g14
(g18
S'\x00\x00\x00\x00\x00\x00\x10@'
p885
tp886
Rp887
sa(dp888
g8
I5
sg9
I162
sg10
I7
sg11
I4406
sg12
I217
sg13
g14
(g18
S'\x00\x00\x00\x00\x00@X@'
p889
tp890
Rp891
sa(dp892
g8
I5
sg9
I175
sg10
I8
sg11
I5263
sg12
I218
sg13
g14
(g18
S'\x00\x00\x00\x00\x00\x006@'
p893
tp894
Rp895
sa(dp896
g8
I5
sg9
I196
sg10
I10
sg11
I2961
sg12
I219
sg13
g14
(g18
S'\x00\x00\x00\x00\x00\xc0S@'
p897
tp898
Rp899
sa(dp900
g8
I5
sg9
I140
sg10
I11
sg11
I3895
sg12
I220
sg13
g14
(g18
S'\x00\x00\x00\x00\x00\x00<@'
p901
tp902
Rp903
sa(dp904
g8
I5
sg9
I104
sg10
I12
sg11
I3512
sg12
I221
sg13
g14
(g18
S'\x00\x00\x00\x00\x00\x00G@'
p905
tp906
Rp907
sa(dp908
g8
I6
sg9
I168
sg10
I1
sg11
I4745
sg12
I222
sg13
g14
(g18
S'\x00\x00\x00\x00\x00\x00(@'
p909
tp910
Rp911
sa(dp912
g8
I6
sg9
I168
sg10
I2
sg11
I4846
sg12
I223
sg13
g14
(g18
S'\x00\x00\x00\x00\x00\x00$@'
p913
tp914
Rp915
sa(dp916
g8
I6
sg9
I173
sg10
I3
sg11
I3016
sg12
I224
sg13
g14
(g18
S'\x00\x00\x00\x00\x00\xc0W@'
p917
tp918
Rp919
sa(dp920
g8
I6
sg9
I121
sg10
I5
sg11
I5042
sg12
I225
sg13
g14
(g18
S'\x00\x00\x00\x00\x00\x00\x00@'
p921
tp922
Rp923
sa(dp924
g8
I6
sg9
I152
sg10
I7
sg11
I3871
sg12
I226
sg13
g14
(g18
S'\x00\x00\x00\x00\x00\x006@'
p925
tp926
Rp927
sa(dp928
g8
I6
sg9
I157
sg10
I9
sg11
I5224
sg12
I227
sg13
g14
(g18
S'\x00\x00\x00\x00\x00\x00\xf0?'
p929
tp930
Rp931
sa(dp932
g8
I6
sg9
I147
sg10
I11
sg11
I4378
sg12
I228
sg13
g14
(g18
S'\x00\x00\x00\x00\x00\x00V@'
p933
tp934
Rp935
sa(dp936
g8
I6
sg9
I134
sg10
I13
sg11
I4459
sg12
I229
sg13
g14
(g18
S'\x00\x00\x00\x00\x00\x001@'
p937
tp938
Rp939
sa(dp940
g8
I6
sg9
I171
sg10
I14
sg11
I3517
sg12
I230
sg13
g14
(g18
S'\x00\x00\x00\x00\x00\x80T@'
p941
tp942
Rp943
sa(dp944
g8
I7
sg9
I121
sg10
I0
sg11
I3024
sg12
I231
sg13
g14
(g18
S'\x00\x00\x00\x00\x00@R@'
p945
tp946
Rp947
sa(dp948
g8
I7
sg9
I186
sg10
I2
sg11
I5738
sg12
I232
sg13
g14
(g18
S'\x00\x00\x00\x00\x00\x00$@'
p949
tp950
Rp951
sa(dp952
g8
I7
sg9
I126
sg10
I3
sg11
I4593
sg12
I233
sg13
g14
(g18
S'\x00\x00\x00\x00\x00\x00$@'
p953
tp954
Rp955
sa(dp956
g8
I7
sg9
I120
sg10
I4
sg11
I3496
sg12
I234
sg13
g14
(g18
S'\x00\x00\x00\x00\x00\x00G@'
p957
tp958
Rp959
sa(dp960
g8
I7
sg9
I135
sg10
I5
sg11
I4476
sg12
I235
sg13
g14
(g18
S'\x00\x00\x00\x00\x00\x00:@'
p961
tp962
Rp963
sa(dp964
g8
I7
sg9
I196
sg10
I7
sg11
I5146
sg12
I236
sg13
g14
(g18
S'\x00\x00\x00\x00\x00\x008@'
p965
tp966
Rp967
sa(dp968
g8
I7
sg9
I107
sg10
I8
sg11
I5637
sg12
I237
sg13
g14
(g18
S'\x00\x00\x00\x00\x00\x00.@'
p969
tp970
Rp971
sa(dp972
g8
I7
sg9
I156
sg10
I9
sg11
I4959
sg12
I238
sg13
g14
(g18
S'\x00\x00\x00\x00\x00\x00*@'
p973
tp974
Rp975
sa(dp976
g8
I7
sg9
I179
sg10
I10
sg11
I4002
sg12
I239
sg13
g14
(g18
S'\x00\x00\x00\x00\x00@Y@'
p977
tp978
Rp979
sa(dp980
g8
I7
sg9
I126
sg10
I12
sg11
I5049
sg12
I240
sg13
g14
(g18
S'\x00\x00\x00\x00\x00\x00 @'
p981
tp982
Rp983
sa(dp984
g8
I7
sg9
I146
sg10
I14
sg11
I4367
sg12
I241
sg13
g14
(g18
S'\x00\x00\x00\x00\x00\x80T@'
p985
tp986
Rp987
sa(dp988
g8
I8
sg9
I103
sg10
I4
sg11
I3096
sg12
I242
sg13
g14
(g18
S'\x00\x00\x00\x00\x00\x00Y@'
p989
tp990
Rp991
sa(dp992
g8
I8
sg9
I197
sg10
I5
sg11
I3912
sg12
I243
sg13
g14
(g18
S'\x00\x00\x00\x00\x00@P@'
p993
tp994
Rp995
sa(dp996
g8
I8
sg9
I198
sg10
I6
sg11
I4529
sg12
I244
sg13
g14
(g18
S'\x00\x00\x00\x00\x00\x00,@'
p997
tp998
Rp999
sa(dp1000
g8
I8
sg9
I103
sg10
I7
sg11
I3537
sg12
I245
sg13
g14
(g18
S'\x00\x00\x00\x00\x00\x00M@'
p1001
tp1002
Rp1003
sa(dp1004
g8
I8
sg9
I141
sg10
I8
sg11
I4386
sg12
I246
sg13
g14
(g18
S'\x00\x00\x00\x00\x00@V@'
p1005
tp1006
Rp1007
sa(dp1008
g8
I8
sg9
I141
sg10
I9
sg11
I4859
sg12
I247
sg13
g14
(g18
S'\x00\x00\x00\x00\x00\x00\x08@'
p1009
tp1010
Rp1011
sa(dp1012
g8
I8
sg9
I112
sg10
I10
sg11
I4991
sg12
I248
sg13
g14
(g18
S'\x00\x00\x00\x00\x00\x00\x1c@'
p1013
tp1014
Rp1015
sa(dp1016
g8
I8
sg9
I177
sg10
I14
sg11
I4984
sg12
I249
sg13
g14
(g18
S'\x00\x00\x00\x00\x00\x00\xf0?'
p1017
tp1018
Rp1019
sa(dp1020
g8
I9
sg9
I114
sg10
I1
sg11
I4703
sg12
I250
sg13
g14
(g18
S'\x00\x00\x00\x00\x00\x00"@'
p1021
tp1022
Rp1023
sa(dp1024
g8
I9
sg9
I190
sg10
I2
sg11
I5440
sg12
I251
sg13
g14
(g18
S'\x00\x00\x00\x00\x00\x00\x08@'
p1025
tp1026
Rp1027
sa(dp1028
g8
I9
sg9
I134
sg10
I4
sg11
I4465
sg12
I252
sg13
g14
(g18
S'\x00\x00\x00\x00\x00\x004@'
p1029
tp1030
Rp1031
sa(dp1032
g8
I9
sg9
I134
sg10
I5
sg11
I4769
sg12
I253
sg13
g14
(g18
S'\x00\x00\x00\x00\x00\x00\x1c@'
p1033
tp1034
Rp1035
sa(dp1036
g8
I9
sg9
I189
sg10
I6
sg11
I4296
sg12
I254
sg13
g14
(g18
S'\x00\x00\x00\x00\x00\x00Q@'
p1037
tp1038
Rp1039
sa(dp1040
g8
I9
sg9
I151
sg10
I7
sg11
I4574
sg12
I255
sg13
g14
(g18
S'\x00\x00\x00\x00\x00\x00*@'
p1041
tp1042
Rp1043
sa(dp1044
g8
I9
sg9
I142
sg10
I8
sg11
I3953
sg12
I256
sg13
g14
(g18
S'\x00\x00\x00\x00\x00\x00M@'
p1045
tp1046
Rp1047
sa(dp1048
g8
I9
sg9
I166
sg10
I9
sg11
I5130
sg12
I257
sg13
g14
(g18
S'\x00\x00\x00\x00\x00\x00\xf0?'
p1049
tp1050
Rp1051
sa(dp1052
g8
I9
sg9
I147
sg10
I10
sg11
I3521
sg12
I258
sg13
g14
(g18
S'\x00\x00\x00\x00\x00\x00R@'
p1053
tp1054
Rp1055
sa(dp1056
g8
I9
sg9
I147
sg10
I11
sg11
I5242
sg12
I259
sg13
g14
(g18
S'\x00\x00\x00\x00\x00\x00\x14@'
p1057
tp1058
Rp1059
sa(dp1060
g8
I9
sg9
I150
sg10
I13
sg11
I4862
sg12
I260
sg13
g14
(g18
S'\x00\x00\x00\x00\x00\x00"@'
p1061
tp1062
Rp1063
sa(dp1064
g8
I9
sg9
I134
sg10
I14
sg11
I3029
sg12
I261
sg13
g14
(g18
S'\x00\x00\x00\x00\x00\x80T@'
p1065
tp1066
Rp1067
sa(dp1068
g8
I10
sg9
I106
sg10
I1
sg11
I3915
sg12
I262
sg13
g14
(g18
S'\x00\x00\x00\x00\x00\x005@'
p1069
tp1070
Rp1071
sa(dp1072
g8
I10
sg9
I159
sg10
I2
sg11
I4641
sg12
I263
sg13
g14
(g18
S'\x00\x00\x00\x00\x00@W@'
p1073
tp1074
Rp1075
sa(dp1076
g8
I10
sg9
I105
sg10
I4
sg11
I5056
sg12
I264
sg13
g14
(g18
S'\x00\x00\x00\x00\x00\x00\xf0?'
p1077
tp1078
Rp1079
sa(dp1080
g8
I10
sg9
I166
sg10
I7
sg11
I2947
sg12
I265
sg13
g14
(g18
S'\x00\x00\x00\x00\x00\x80L@'
p1081
tp1082
Rp1083
sa(dp1084
g8
I10
sg9
I102
sg10
I8
sg11
I4995
sg12
I266
sg13
g14
(g18
S'\x00\x00\x00\x00\x00\x00\x10@'
p1085
tp1086
Rp1087
sa(dp1088
g8
I10
sg9
I112
sg10
I10
sg11
I4481
sg12
I267
sg13
g14
(g18
S'\x00\x00\x00\x00\x00\x001@'
p1089
tp1090
Rp1091
sa(dp1092
g8
I10
sg9
I149
sg10
I11
sg11
I5501
sg12
I268
sg13
g14
(g18
S'\x00\x00\x00\x00\x00\x00*@'
p1093
tp1094
Rp1095
sa(dp1096
g8
I10
sg9
I149
sg10
I12
sg11
I4594
sg12
I269
sg13
g14
(g18
S'\x00\x00\x00\x00\x00\x006@'
p1097
tp1098
Rp1099
sa(dp1100
g8
I10
sg9
I157
sg10
I13
sg11
I3455
sg12
I270
sg13
g14
(g18
S'\x00\x00\x00\x00\x00\x00F@'
p1101
tp1102
Rp1103
sa(dp1104
g8
I10
sg9
I186
sg10
I14
sg11
I4816
sg12
I271
sg13
g14
(g18
S'\x00\x00\x00\x00\x00\x00\x10@'
p1105
tp1106
Rp1107
sa(dp1108
g8
I11
sg9
I192
sg10
I0
sg11
I4977
sg12
I272
sg13
g14
(g18
S'\x00\x00\x00\x00\x00\x00\x14@'
p1109
tp1110
Rp1111
sa(dp1112
g8
I11
sg9
I154
sg10
I2
sg11
I3955
sg12
I273
sg13
g14
(g18
S'\x00\x00\x00\x00\x00@P@'
p1113
tp1114
Rp1115
sa(dp1116
g8
I11
sg9
I139
sg10
I3
sg11
I3459
sg12
I274
sg13
g14
(g18
S'\x00\x00\x00\x00\x00\x80B@'
p1117
tp1118
Rp1119
sa(dp1120
g8
I11
sg9
I166
sg10
I4
sg11
I4749
sg12
I275
sg13
g14
(g18
S'\x00\x00\x00\x00\x00\x00*@'
p1121
tp1122
Rp1123
sa(dp1124
g8
I11
sg9
I127
sg10
I5
sg11
I3018
sg12
I276
sg13
g14
(g18
S'\x00\x00\x00\x00\x00@R@'
p1125
tp1126
Rp1127
sa(dp1128
g8
I11
sg9
I150
sg10
I6
sg11
I4675
sg12
I277
sg13
g14
(g18
S'\x00\x00\x00\x00\x00\x00*@'
p1129
tp1130
Rp1131
sa(dp1132
g8
I11
sg9
I119
sg10
I8
sg11
I5119
sg12
I278
sg13
g14
(g18
S'\x00\x00\x00\x00\x00\x00\x1c@'
p1133
tp1134
Rp1135
sa(dp1136
g8
I11
sg9
I172
sg10
I10
sg11
I4281
sg12
I279
sg13
g14
(g18
S'\x00\x00\x00\x00\x00\x00J@'
p1137
tp1138
Rp1139
sa(dp1140
g8
I11
sg9
I113
sg10
I11
sg11
I5341
sg12
I280
sg13
g14
(g18
S'\x00\x00\x00\x00\x00\x00$@'
p1141
tp1142
Rp1143
sa(dp1144
g8
I11
sg9
I161
sg10
I12
sg11
I4861
sg12
I281
sg13
g14
(g18
S'\x00\x00\x00\x00\x00\x00,@'
p1145
tp1146
Rp1147
sa(dp1148
g8
I11
sg9
I133
sg10
I13
sg11
I4964
sg12
I282
sg13
g14
(g18
S'\x00\x00\x00\x00\x00\x00\x10@'
p1149
tp1150
Rp1151
sa(dp1152
g8
I11
sg9
I124
sg10
I15
sg11
I4475
sg12
I283
sg13
g14
(g18
S'\x00\x00\x00\x00\x00\x004@'
p1153
tp1154
Rp1155
sa(dp1156
g8
I12
sg9
I149
sg10
I0
sg11
I3990
sg12
I284
sg13
g14
(g18
S'\x00\x00\x00\x00\x00\x00T@'
p1157
tp1158
Rp1159
sa(dp1160
g8
I12
sg9
I124
sg10
I3
sg11
I4783
sg12
I285
sg13
g14
(g18
S'\x00\x00\x00\x00\x00\x00"@'
p1161
tp1162
Rp1163
sa(dp1164
g8
I12
sg9
I105
sg10
I5
sg11
I4895
sg12
I286
sg13
g14
(g18
S'\x00\x00\x00\x00\x00\x00\x08@'
p1165
tp1166
Rp1167
sa(dp1168
g8
I12
sg9
I184
sg10
I7
sg11
I5217
sg12
I287
sg13
g14
(g18
S'\x00\x00\x00\x00\x00\x00&@'
p1169
tp1170
Rp1171
sa(dp1172
g8
I12
sg9
I197
sg10
I9
sg11
I2986
sg12
I288
sg13
g14
(g18
S'\x00\x00\x00\x00\x00\x00W@'
p1173
tp1174
Rp1175
sa(dp1176
g8
I12
sg9
I177
sg10
I10
sg11
I5059
sg12
I289
sg13
g14
(g18
S'\x00\x00\x00\x00\x00\x00\x18@'
p1177
tp1178
Rp1179
sa(dp1180
g8
I12
sg9
I185
sg10
I11
sg11
I5333
sg12
I290
sg13
g14
(g18
S'\x00\x00\x00\x00\x00\x80T@'
p1181
tp1182
Rp1183
sa(dp1184
g8
I12
sg9
I150
sg10
I12
sg11
I4237
sg12
I291
sg13
g14
(g18
S'\x00\x00\x00\x00\x00\x003@'
p1185
tp1186
Rp1187
sa(dp1188
g8
I12
sg9
I169
sg10
I13
sg11
I4650
sg12
I292
sg13
g14
(g18
S'\x00\x00\x00\x00\x00\x00$@'
p1189
tp1190
Rp1191
sa(dp1192
g8
I12
sg9
I101
sg10
I14
sg11
I4634
sg12
I293
sg13
g14
(g18
S'\x00\x00\x00\x00\x00\x002@'
p1193
tp1194
Rp1195
sa(dp1196
g8
I12
sg9
I118
sg10
I15
sg11
I3556
sg12
I294
sg13
g14
(g18
S'\x00\x00\x00\x00\x00\xc0R@'
p1197
tp1198
Rp1199
sa(dp1200
g8
I13
sg9
I134
sg10
I1
sg11
I4593
sg12
I295
sg13
g14
(g18
S'\x00\x00\x00\x00\x00\x00,@'
p1201
tp1202
Rp1203
sa(dp1204
g8
I13
sg9
I192
sg10
I2
sg11
I4395
sg12
I296
sg13
g14
(g18
S'\x00\x00\x00\x00\x00\x00,@'
p1205
tp1206
Rp1207
sa(dp1208
g8
I13
sg9
I186
sg10
I3
sg11
I4822
sg12
I297
sg13
g14
(g18
S'\x00\x00\x00\x00\x00\x00\x1c@'
p1209
tp1210
Rp1211
sa(dp1212
g8
I13
sg9
I147
sg10
I4
sg11
I5303
sg12
I298
sg13
g14
(g18
S'\x00\x00\x00\x00\x00\x00 @'
p1213
tp1214
Rp1215
sa(dp1216
g8
I13
sg9
I177
sg10
I5
sg11
I4234
sg12
I299
sg13
g14
(g18
S'\x00\x00\x00\x00\x00\x00?@'
p1217
tp1218
Rp1219
sa(dp1220
g8
I13
sg9
I188
sg10
I6
sg11
I4729
sg12
I300
sg13
g14
(g18
S'\x00\x00\x00\x00\x00\x00,@'
p1221
tp1222
Rp1223
sa(dp1224
g8
I13
sg9
I180
sg10
I8
sg11
I3115
sg12
I301
sg13
g14
(g18
S'\x00\x00\x00\x00\x00\x80b@'
p1225
tp1226
Rp1227
sa(dp1228
g8
I13
sg9
I102
sg10
I9
sg11
I3953
sg12
I302
sg13
g14
(g18
S'\x00\x00\x00\x00\x00\x00C@'
p1229
tp1230
Rp1231
sa(dp1232
g8
I13
sg9
I144
sg10
I10
sg11
I5041
sg12
I303
sg13
g14
(g18
S'\x00\x00\x00\x00\x00\x00*@'
p1233
tp1234
Rp1235
sa(dp1236
g8
I13
sg9
I188
sg10
I12
sg11
I4919
sg12
I304
sg13
g14
(g18
S'\x00\x00\x00\x00\x00\x00"@'
p1237
tp1238
Rp1239
sa(dp1240
g8
I13
sg9
I138
sg10
I14
sg11
I5110
sg12
I305
sg13
g14
(g18
S'\x00\x00\x00\x00\x00\x00(@'
p1241
tp1242
Rp1243
sa(dp1244
g8
I13
sg9
I126
sg10
I15
sg11
I4695
sg12
I306
sg13
g14
(g18
S'\x00\x00\x00\x00\x00\x00&@'
p1245
tp1246
Rp1247
sa(dp1248
g8
I14
sg9
I157
sg10
I0
sg11
I4584
sg12
I307
sg13
g14
(g18
S'\x00\x00\x00\x00\x00\x005@'
p1249
tp1250
Rp1251
sa(dp1252
g8
I14
sg9
I104
sg10
I1
sg11
I3566
sg12
I308
sg13
g14
(g18
S'\x00\x00\x00\x00\x00@R@'
p1253
tp1254
Rp1255
sa(dp1256
g8
I14
sg9
I199
sg10
I4
sg11
I4906
sg12
I309
sg13
g14
(g18
S'\x00\x00\x00\x00\x00\x00 @'
p1257
tp1258
Rp1259
sa(dp1260
g8
I14
sg9
I109
sg10
I5
sg11
I4708
sg12
I310
sg13
g14
(g18
S'\x00\x00\x00\x00\x00\x00"@'
p1261
tp1262
Rp1263
sa(dp1264
g8
I14
sg9
I157
sg10
I6
sg11
I4430
sg12
I311
sg13
g14
(g18
S'\x00\x00\x00\x00\x00\x00,@'
p1265
tp1266
Rp1267
sa(dp1268
g8
I14
sg9
I147
sg10
I9
sg11
I4274
sg12
I312
sg13
g14
(g18
S'\x00\x00\x00\x00\x00\x00B@'
p1269
tp1270
Rp1271
sa(dp1272
g8
I14
sg9
I131
sg10
I12
sg11
I3056
sg12
I313
sg13
g14
(g18
S'\x00\x00\x00\x00\x00\x80W@'
p1273
tp1274
Rp1275
sa(dp1276
g8
I14
sg9
I103
sg10
I13
sg11
I4808
sg12
I314
sg13
g14
(g18
S'\x00\x00\x00\x00\x00\x00&@'
p1277
tp1278
Rp1279
sa(dp1280
g8
I14
sg9
I183
sg10
I15
sg11
I3920
sg12
I315
sg13
g14
(g18
S'\x00\x00\x00\x00\x00\x00O@'
p1281
tp1282
Rp1283
sa(dp1284
g8
I15
sg9
I148
sg10
I0
sg11
I4771
sg12
I316
sg13
g14
(g18
S'\x00\x00\x00\x00\x00\x00.@'
p1285
tp1286
Rp1287
sa(dp1288
g8
I15
sg9
I179
sg10
I1
sg11
I2996
sg12
I317
sg13
g14
(g18
S'\x00\x00\x00\x00\x00\x00V@'
p1289
tp1290
Rp1291
sa(dp1292
g8
I15
sg9
I103
sg10
I3
sg11
I3926
sg12
I318
sg13
g14
(g18
S'\x00\x00\x00\x00\x00\x009@'
p1293
tp1294
Rp1295
sa(dp1296
g8
I15
sg9
I187
sg10
I6
sg11
I5362
sg12
I319
sg13
g14
(g18
S'\x00\x00\x00\x00\x00\x80A@'
p1297
tp1298
Rp1299
sa(dp1300
g8
I15
sg9
I168
sg10
I8
sg11
I5148
sg12
I320
sg13
g14
(g18
S'\x00\x00\x00\x00\x00\x00&@'
p1301
tp1302
Rp1303
sa(dp1304
g8
I15
sg9
I183
sg10
I9
sg11
I4638
sg12
I321
sg13
g14
(g18
S'\x00\x00\x00\x00\x00\x00&@'
p1305
tp1306
Rp1307
sa(dp1308
g8
I15
sg9
I120
sg10
I11
sg11
I3500
sg12
I322
sg13
g14
(g18
S'\x00\x00\x00\x00\x00\x00H@'
p1309
tp1310
Rp1311
sa(dp1312
g8
I15
sg9
I119
sg10
I13
sg11
I4608
sg12
I323
sg13
g14
(g18
S'\x00\x00\x00\x00\x00\x00,@'
p1313
tp1314
Rp1315
sa(dp1316
g8
I15
sg9
I174
sg10
I14
sg11
I4427
sg12
I324
sg13
g14
(g18
S'\x00\x00\x00\x00\x00\x005@'
p1317
tp1318
Rp1319
sa(dp1320
g8
I15
sg9
I180
sg10
I15
sg11
I4295
sg12
I325
sg13
g14
(g18
S'\x00\x00\x00\x00\x00\x80O@'
p1321
tp1322
Rp1323
sa(dp1324
g8
I0
sg9
I226
sg10
I0
sg11
I3640
sg12
I326
sg13
g14
(g18
S'\x00\x00\x00\x00\x00\x80\\@'
p1325
tp1326
Rp1327
sa(dp1328
g8
I0
sg9
I244
sg10
I2
sg11
I4869
sg12
I327
sg13
g14
(g18
S'\x00\x00\x00\x00\x00\x00 @'
p1329
tp1330
Rp1331
sa(dp1332
g8
I0
sg9
I279
sg10
I3
sg11
I4322
sg12
I328
sg13
g14
(g18
S'\x00\x00\x00\x00\x00\x00,@'
p1333
tp1334
Rp1335
sa(dp1336
g8
I0
sg9
I267
sg10
I6
sg11
I3919
sg12
I329
sg13
g14
(g18
S'\x00\x00\x00\x00\x00@Q@'
p1337
tp1338
Rp1339
sa(dp1340
g8
I0
sg9
I250
sg10
I8
sg11
I4786
sg12
I330
sg13
g14
(g18
S'\x00\x00\x00\x00\x00\x00,@'
p1341
tp1342
Rp1343
sa(dp1344
g8
I0
sg9
I201
sg10
I9
sg11
I4733
sg12
I331
sg13
g14
(g18
S'\x00\x00\x00\x00\x00\x00.@'
p1345
tp1346
Rp1347
sa(dp1348
g8
I0
sg9
I226
sg10
I12
sg11
I4612
sg12
I332
sg13
g14
(g18
S'\x00\x00\x00\x00\x00\x00*@'
p1349
tp1350
Rp1351
sa(dp1352
g8
I0
sg9
I211
sg10
I15
sg11
I3133
sg12
I333
sg13
g14
(g18
S'\x00\x00\x00\x00\x00\xc0\\@'
p1353
tp1354
Rp1355
sa(dp1356
g8
I1
sg9
I237
sg10
I0
sg11
I4364
sg12
I334
sg13
g14
(g18
S'\x00\x00\x00\x00\x00\x00,@'
p1357
tp1358
Rp1359
sa(dp1360
g8
I1
sg9
I216
sg10
I1
sg11
I4244
sg12
I335
sg13
g14
(g18
S'\x00\x00\x00\x00\x00\x80B@'
p1361
tp1362
Rp1363
sa(dp1364
g8
I1
sg9
I245
sg10
I2
sg11
I4935
sg12
I336
sg13
g14
(g18
S'\x00\x00\x00\x00\x00\x00\x1c@'
p1365
tp1366
Rp1367
sa(dp1368
g8
I1
sg9
I278
sg10
I3
sg11
I4560
sg12
I337
sg13
g14
(g18
S'\x00\x00\x00\x00\x00\x00*@'
p1369
tp1370
Rp1371
sa(dp1372
g8
I1
sg9
I253
sg10
I4
sg11
I4765
sg12
I338
sg13
g14
(g18
S'\x00\x00\x00\x00\x00\x00 @'
p1373
tp1374
Rp1375
sa(dp1376
g8
I1
sg9
I211
sg10
I5
sg11
I3604
sg12
I339
sg13
g14
(g18
S'\x00\x00\x00\x00\x00@X@'
p1377
tp1378
Rp1379
sa(dp1380
g8
I1
sg9
I213
sg10
I8
sg11
I5184
sg12
I340
sg13
g14
(g18
S'\x00\x00\x00\x00\x00\x00\x18@'
p1381
tp1382
Rp1383
sa(dp1384
g8
I1
sg9
I297
sg10
I10
sg11
I5006
sg12
I341
sg13
g14
(g18
S'\x00\x00\x00\x00\x00\x00\x08@'
p1385
tp1386
Rp1387
sa(dp1388
g8
I1
sg9
I280
sg10
I11
sg11
I2989
sg12
I342
sg13
g14
(g18
S'\x00\x00\x00\x00\x00\x80V@'
p1389
tp1390
Rp1391
sa(dp1392
g8
I1
sg9
I275
sg10
I12
sg11
I4961
sg12
I343
sg13
g14
(g18
S'\x00\x00\x00\x00\x00\x00\x10@'
p1393
tp1394
Rp1395
sa(dp1396
g8
I1
sg9
I277
sg10
I13
sg11
I3858
sg12
I344
sg13
g14
(g18
S'\x00\x00\x00\x00\x00\x00J@'
p1397
tp1398
Rp1399
sa(dp1400
g8
I1
sg9
I272
sg10
I15
sg11
I4680
sg12
I345
sg13
g14
(g18
S'\x00\x00\x00\x00\x00\x005@'
p1401
tp1402
Rp1403
sa(dp1404
g8
I2
sg9
I284
sg10
I1
sg11
I4887
sg12
I346
sg13
g14
(g18
S'\x00\x00\x00\x00\x00\x003@'
p1405
tp1406
Rp1407
sa(dp1408
g8
I2
sg9
I205
sg10
I2
sg11
I4720
sg12
I347
sg13
g14
(g18
S'\x00\x00\x00\x00\x00\x00(@'
p1409
tp1410
Rp1411
sa(dp1412
g8
I2
sg9
I206
sg10
I3
sg11
I4191
sg12
I348
sg13
g14
(g18
S'\x00\x00\x00\x00\x00\x000@'
p1413
tp1414
Rp1415
sa(dp1416
g8
I2
sg9
I247
sg10
I6
sg11
I3184
sg12
I349
sg13
g14
(g18
S'\x00\x00\x00\x00\x00\x00b@'
p1417
tp1418
Rp1419
sa(dp1420
g8
I2
sg9
I204
sg10
I7
sg11
I4814
sg12
I350
sg13
g14
(g18
S'\x00\x00\x00\x00\x00\x00 @'
p1421
tp1422
Rp1423
sa(dp1424
g8
I2
sg9
I225
sg10
I9
sg11
I4504
sg12
I351
sg13
g14
(g18
S'\x00\x00\x00\x00\x00\x00$@'
p1425
tp1426
Rp1427
sa(dp1428
g8
I2
sg9
I216
sg10
I10
sg11
I4610
sg12
I352
sg13
g14
(g18
S'\x00\x00\x00\x00\x00\x00"@'
p1429
tp1430
Rp1431
sa(dp1432
g8
I2
sg9
I260
sg10
I12
sg11
I4353
sg12
I353
sg13
g14
(g18
S'\x00\x00\x00\x00\x00\x002@'
p1433
tp1434
Rp1435
sa(dp1436
g8
I2
sg9
I299
sg10
I14
sg11
I3767
sg12
I354
sg13
g14
(g18
S'\x00\x00\x00\x00\x00\x00=@'
p1437
tp1438
Rp1439
sa(dp1440
g8
I2
sg9
I270
sg10
I15
sg11
I5060
sg12
I355
sg13
g14
(g18
S'\x00\x00\x00\x00\x00\x00(@'
p1441
tp1442
Rp1443
sa(dp1444
g8
I3
sg9
I228
sg10
I0
sg11
I4997
sg12
I356
sg13
g14
(g18
S'\x00\x00\x00\x00\x00\x006@'
p1445
tp1446
Rp1447
sa(dp1448
g8
I3
sg9
I232
sg10
I1
sg11
I4369
sg12
I357
sg13
g14
(g18
S'\x00\x00\x00\x00\x00\x00,@'
p1449
tp1450
Rp1451
sa(dp1452
g8
I3
sg9
I209
sg10
I2
sg11
I3373
sg12
I358
sg13
g14
(g18
S'\x00\x00\x00\x00\x00@g@'
p1453
tp1454
Rp1455
sa(dp1456
g8
I3
sg9
I275
sg10
I6
sg11
I5040
sg12
I359
sg13
g14
(g18
S'\x00\x00\x00\x00\x00\x00\x1c@'
p1457
tp1458
Rp1459
sa(dp1460
g8
I3
sg9
I233
sg10
I7
sg11
I4862
sg12
I360
sg13
g14
(g18
S'\x00\x00\x00\x00\x00\x00\x00@'
p1461
tp1462
Rp1463
sa(dp1464
g8
I3
sg9
I298
sg10
I8
sg11
I4446
sg12
I361
sg13
g14
(g18
S'\x00\x00\x00\x00\x00\x00.@'
p1465
tp1466
Rp1467
sa(dp1468
g8
I3
sg9
I252
sg10
I9
sg11
I4910
sg12
I362
sg13
g14
(g18
S'\x00\x00\x00\x00\x00\x00\xf0?'
p1469
tp1470
Rp1471
sa(dp1472
g8
I3
sg9
I273
sg10
I10
sg11
I4637
sg12
I363
sg13
g14
(g18
S'\x00\x00\x00\x00\x00\x00\x1c@'
p1473
tp1474
Rp1475
sa(dp1476
g8
I3
sg9
I202
sg10
I11
sg11
I4810
sg12
I364
sg13
g14
(g18
S'\x00\x00\x00\x00\x00\x00\x18@'
p1477
tp1478
Rp1479
sa(dp1480
g8
I3
sg9
I246
sg10
I12
sg11
I3874
sg12
I365
sg13
g14
(g18
S'\x00\x00\x00\x00\x00\x80G@'
p1481
tp1482
Rp1483
sa(dp1484
g8
I3
sg9
I237
sg10
I13
sg11
I4163
sg12
I366
sg13
g14
(g18
S'\x00\x00\x00\x00\x00\x001@'
p1485
tp1486
Rp1487
sa(dp1488
g8
I4
sg9
I266
sg10
I1
sg11
I4764
sg12
I367
sg13
g14
(g18
S'\x00\x00\x00\x00\x00\x00(@'
p1489
tp1490
Rp1491
sa(dp1492
g8
I4
sg9
I298
sg10
I2
sg11
I5011
sg12
I368
sg13
g14
(g18
S'\x00\x00\x00\x00\x00\x00\x14@'
p1493
tp1494
Rp1495
sa(dp1496
g8
I4
sg9
I264
sg10
I4
sg11
I4169
sg12
I369
sg13
g14
(g18
S'\x00\x00\x00\x00\x00\xe0a@'
p1497
tp1498
Rp1499
sa(dp1500
g8
I4
sg9
I248
sg10
I5
sg11
I4847
sg12
I370
sg13
g14
(g18
S'\x00\x00\x00\x00\x00\x00\x00@'
p1501
tp1502
Rp1503
sa(dp1504
g8
I4
sg9
I232
sg10
I7
sg11
I4945
sg12
I371
sg13
g14
(g18
S'\x00\x00\x00\x00\x00\x00\x18@'
p1505
tp1506
Rp1507
sa(dp1508
g8
I4
sg9
I224
sg10
I9
sg11
I3627
sg12
I372
sg13
g14
(g18
S'\x00\x00\x00\x00\x00@[@'
p1509
tp1510
Rp1511
sa(dp1512
g8
I4
sg9
I263
sg10
I11
sg11
I4650
sg12
I373
sg13
g14
(g18
S'\x00\x00\x00\x00\x00\x00 @'
p1513
tp1514
Rp1515
sa(dp1516
g8
I4
sg9
I219
sg10
I13
sg11
I3011
sg12
I374
sg13
g14
(g18
S'\x00\x00\x00\x00\x00@S@'
p1517
tp1518
Rp1519
sa(dp1520
g8
I4
sg9
I224
sg10
I15
sg11
I5158
sg12
I375
sg13
g14
(g18
S'\x00\x00\x00\x00\x00\x00\xf0?'
p1521
tp1522
Rp1523
sa(dp1524
g8
I5
sg9
I296
sg10
I0
sg11
I4820
sg12
I376
sg13
g14
(g18
S'\x00\x00\x00\x00\x00\x00"@'
p1525
tp1526
Rp1527
sa(dp1528
g8
I5
sg9
I249
sg10
I2
sg11
I4495
sg12
I377
sg13
g14
(g18
S'\x00\x00\x00\x00\x00\x00.@'
p1529
tp1530
Rp1531
sa(dp1532
g8
I5
sg9
I222
sg10
I4
sg11
I5175
sg12
I378
sg13
g14
(g18
S'\x00\x00\x00\x00\x00\x00:@'
p1533
tp1534
Rp1535
sa(dp1536
g8
I5
sg9
I261
sg10
I6
sg11
I4745
sg12
I379
sg13
g14
(g18
S'\x00\x00\x00\x00\x00\x00\x10@'
p1537
tp1538
Rp1539
sa(dp1540
g8
I5
sg9
I262
sg10
I7
sg11
I4403
sg12
I380
sg13
g14
(g18
S'\x00\x00\x00\x00\x00@X@'
p1541
tp1542
Rp1543
sa(dp1544
g8
I5
sg9
I275
sg10
I8
sg11
I5185
sg12
I381
sg13
g14
(g18
S'\x00\x00\x00\x00\x00\x006@'
p1545
tp1546
Rp1547
sa(dp1548
g8
I5
sg9
I296
sg10
I10
sg11
I2940
sg12
I382
sg13
g14
(g18
S'\x00\x00\x00\x00\x00\xc0S@'
p1549
tp1550
Rp1551
sa(dp1552
g8
I5
sg9
I240
sg10
I11
sg11
I3823
sg12
I383
sg13
g14
(g18
S'\x00\x00\x00\x00\x00\x00<@'
p1553
tp1554
Rp1555
sa(dp1556
g8
I5
sg9
I204
sg10
I12
sg11
I3458
sg12
I384
sg13
g14
(g18
S'\x00\x00\x00\x00\x00\x00G@'
p1557
tp1558
Rp1559
sa(dp1560
g8
I6
sg9
I268
sg10
I1
sg11
I4657
sg12
I385
sg13
g14
(g18
S'\x00\x00\x00\x00\x00\x00(@'
p1561
tp1562
Rp1563
sa(dp1564
g8
I6
sg9
I268
sg10
I2
sg11
I4756
sg12
I386
sg13
g14
(g18
S'\x00\x00\x00\x00\x00\x00$@'
p1565
tp1566
Rp1567
sa(dp1568
g8
I6
sg9
I273
sg10
I3
sg11
I3011
sg12
I387
sg13
g14
(g18
S'\x00\x00\x00\x00\x00\xc0W@'
p1569
tp1570
Rp1571
sa(dp1572
g8
I6
sg9
I221
sg10
I5
sg11
I4944
sg12
I388
sg13
g14
(g18
S'\x00\x00\x00\x00\x00\x00\x00@'
p1573
tp1574
Rp1575
sa(dp1576
g8
I6
sg9
I252
sg10
I7
sg11
I3793
sg12
I389
sg13
g14
(g18
S'\x00\x00\x00\x00\x00\x006@'
p1577
tp1578
Rp1579
sa(dp1580
g8
I6
sg9
I257
sg10
I9
sg11
I5125
sg12
I390
sg13
g14
(g18
S'\x00\x00\x00\x00\x00\x00\xf0?'
p1581
tp1582
Rp1583
sa(dp1584
g8
I6
sg9
I247
sg10
I11
sg11
I4556
sg12
I391
sg13
g14
(g18
S'\x00\x00\x00\x00\x00\x00V@'
p1585
tp1586
Rp1587
sa(dp1588
g8
I6
sg9
I234
sg10
I13
sg11
I4376
sg12
I392
sg13
g14
(g18
S'\x00\x00\x00\x00\x00\x001@'
p1589
tp1590
Rp1591
sa(dp1592
g8
I6
sg9
I271
sg10
I14
sg11
I3499
sg12
I393
sg13
g14
(g18
S'\x00\x00\x00\x00\x00\x80T@'
p1593
tp1594
Rp1595
sa(dp1596
g8
I7
sg9
I221
sg10
I0
sg11
I2997
sg12
I394
sg13
g14
(g18
S'\x00\x00\x00\x00\x00@R@'
p1597
tp1598
Rp1599
sa(dp1600
g8
I7
sg9
I286
sg10
I2
sg11
I5648
sg12
I395
sg13
g14
(g18
S'\x00\x00\x00\x00\x00\x00$@'
p1601
tp1602
Rp1603
sa(dp1604
g8
I7
sg9
I226
sg10
I3
sg11
I4503
sg12
I396
sg13
g14
(g18
S'\x00\x00\x00\x00\x00\x00$@'
p1605
tp1606
Rp1607
sa(dp1608
g8
I7
sg9
I220
sg10
I4
sg11
I3442
sg12
I397
sg13
g14
(g18
S'\x00\x00\x00\x00\x00\x00G@'
p1609
tp1610
Rp1611
sa(dp1612
g8
I7
sg9
I235
sg10
I5
sg11
I4402
sg12
I398
sg13
g14
(g18
S'\x00\x00\x00\x00\x00\x00:@'
p1613
tp1614
Rp1615
sa(dp1616
g8
I7
sg9
I296
sg10
I7
sg11
I5340
sg12
I399
sg13
g14
(g18
S'\x00\x00\x00\x00\x00\x008@'
p1617
tp1618
Rp1619
sa(dp1620
g8
I7
sg9
I207
sg10
I8
sg11
I5552
sg12
I400
sg13
g14
(g18
S'\x00\x00\x00\x00\x00\x00.@'
p1621
tp1622
Rp1623
sa(dp1624
g8
I7
sg9
I256
sg10
I9
sg11
I4872
sg12
I401
sg13
g14
(g18
S'\x00\x00\x00\x00\x00\x00*@'
p1625
tp1626
Rp1627
sa(dp1628
g8
I7
sg9
I279
sg10
I10
sg11
I4003
sg12
I402
sg13
g14
(g18
S'\x00\x00\x00\x00\x00@Y@'
p1629
tp1630
Rp1631
sa(dp1632
g8
I7
sg9
I226
sg10
I12
sg11
I4957
sg12
I403
sg13
g14
(g18
S'\x00\x00\x00\x00\x00\x00 @'
p1633
tp1634
Rp1635
sa(dp1636
g8
I7
sg9
I246
sg10
I14
sg11
I4614
sg12
I404
sg13
g14
(g18
S'\x00\x00\x00\x00\x00\x80T@'
p1637
tp1638
Rp1639
sa(dp1640
g8
I8
sg9
I203
sg10
I4
sg11
I3096
sg12
I405
sg13
g14
(g18
S'\x00\x00\x00\x00\x00\x00Y@'
p1641
tp1642
Rp1643
sa(dp1644
g8
I8
sg9
I297
sg10
I5
sg11
I3877
sg12
I406
sg13
g14
(g18
S'\x00\x00\x00\x00\x00@P@'
p1645
tp1646
Rp1647
sa(dp1648
g8
I8
sg9
I298
sg10
I6
sg11
I4443
sg12
I407
sg13
g14
(g18
S'\x00\x00\x00\x00\x00\x00,@'
p1649
tp1650
Rp1651
sa(dp1652
g8
I8
sg9
I203
sg10
I7
sg11
I3495
sg12
I408
sg13
g14
(g18
S'\x00\x00\x00\x00\x00\x00M@'
p1653
tp1654
Rp1655
sa(dp1656
g8
I8
sg9
I241
sg10
I8
sg11
I4400
sg12
I409
sg13
g14
(g18
S'\x00\x00\x00\x00\x00@V@'
p1657
tp1658
Rp1659
sa(dp1660
g8
I8
sg9
I241
sg10
I9
sg11
I4762
sg12
I410
sg13
g14
(g18
S'\x00\x00\x00\x00\x00\x00\x08@'
p1661
tp1662
Rp1663
sa(dp1664
g8
I8
sg9
I212
sg10
I10
sg11
I4898
sg12
I411
sg13
g14
(g18
S'\x00\x00\x00\x00\x00\x00\x1c@'
p1665
tp1666
Rp1667
sa(dp1668
g8
I8
sg9
I277
sg10
I14
sg11
I4885
sg12
I412
sg13
g14
(g18
S'\x00\x00\x00\x00\x00\x00\xf0?'
p1669
tp1670
Rp1671
sa(dp1672
g8
I9
sg9
I214
sg10
I1
sg11
I4612
sg12
I413
sg13
g14
(g18
S'\x00\x00\x00\x00\x00\x00"@'
p1673
tp1674
Rp1675
sa(dp1676
g8
I9
sg9
I290
sg10
I2
sg11
I5343
sg12
I414
sg13
g14
(g18
S'\x00\x00\x00\x00\x00\x00\x08@'
p1677
tp1678
Rp1679
sa(dp1680
g8
I9
sg9
I234
sg10
I4
sg11
I4385
sg12
I415
sg13
g14
(g18
S'\x00\x00\x00\x00\x00\x004@'
p1681
tp1682
Rp1683
sa(dp1684
g8
I9
sg9
I234
sg10
I5
sg11
I4676
sg12
I416
sg13
g14
(g18
S'\x00\x00\x00\x00\x00\x00\x1c@'
p1685
tp1686
Rp1687
sa(dp1688
g8
I9
sg9
I289
sg10
I6
sg11
I4819
sg12
I417
sg13
g14
(g18
S'\x00\x00\x00\x00\x00\x00Q@'
p1689
tp1690
Rp1691
sa(dp1692
g8
I9
sg9
I251
sg10
I7
sg11
I4487
sg12
I418
sg13
g14
(g18
S'\x00\x00\x00\x00\x00\x00*@'
p1693
tp1694
Rp1695
sa(dp1696
g8
I9
sg9
I242
sg10
I8
sg11
I3911
sg12
I419
sg13
g14
(g18
S'\x00\x00\x00\x00\x00\x00M@'
p1697
tp1698
Rp1699
sa(dp1700
g8
I9
sg9
I266
sg10
I9
sg11
I5031
sg12
I420
sg13
g14
(g18
S'\x00\x00\x00\x00\x00\x00\xf0?'
p1701
tp1702
Rp1703
sa(dp1704
g8
I9
sg9
I247
sg10
I10
sg11
I3493
sg12
I421
sg13
g14
(g18
S'\x00\x00\x00\x00\x00\x00R@'
p1705
tp1706
Rp1707
sa(dp1708
g8
I9
sg9
I247
sg10
I11
sg11
I5147
sg12
I422
sg13
g14
(g18
S'\x00\x00\x00\x00\x00\x00\x14@'
p1709
tp1710
Rp1711
sa(dp1712
g8
I9
sg9
I250
sg10
I13
sg11
I4771
sg12
I423
sg13
g14
(g18
S'\x00\x00\x00\x00\x00\x00"@'
p1713
tp1714
Rp1715
sa(dp1716
g8
I9
sg9
I234
sg10
I14
sg11
I3011
sg12
I424
sg13
g14
(g18
S'\x00\x00\x00\x00\x00\x80T@'
p1717
tp1718
Rp1719
sa(dp1720
g8
I10
sg9
I206
sg10
I1
sg11
I3836
sg12
I425
sg13
g14
(g18
S'\x00\x00\x00\x00\x00\x005@'
p1721
tp1722
Rp1723
sa(dp1724
g8
I10
sg9
I259
sg10
I2
sg11
I4994
sg12
I426
sg13
g14
(g18
S'\x00\x00\x00\x00\x00@W@'
p1725
tp1726
Rp1727
sa(dp1728
g8
I10
sg9
I205
sg10
I4
sg11
I4957
sg12
I427
sg13
g14
(g18
S'\x00\x00\x00\x00\x00\x00\xf0?'
p1729
tp1730
Rp1731
sa(dp1732
g8
I10
sg9
I266
sg10
I7
sg11
I2904
sg12
I428
sg13
g14
(g18
S'\x00\x00\x00\x00\x00\x80L@'
p1733
tp1734
Rp1735
sa(dp1736
g8
I10
sg9
I202
sg10
I8
sg11
I4899
sg12
I429
sg13
g14
(g18
S'\x00\x00\x00\x00\x00\x00\x10@'
p1737
tp1738
Rp1739
sa(dp1740
g8
I10
sg9
I212
sg10
I10
sg11
I4398
sg12
I430
sg13
g14
(g18
S'\x00\x00\x00\x00\x00\x001@'
p1741
tp1742
Rp1743
sa(dp1744
g8
I10
sg9
I249
sg10
I11
sg11
I5414
sg12
I431
sg13
g14
(g18
S'\x00\x00\x00\x00\x00\x00*@'
p1745
tp1746
Rp1747
sa(dp1748
g8
I10
sg9
I249
sg10
I12
sg11
I4516
sg12
I432
sg13
g14
(g18
S'\x00\x00\x00\x00\x00\x006@'
p1749
tp1750
Rp1751
sa(dp1752
g8
I10
sg9
I257
sg10
I13
sg11
I3399
sg12
I433
sg13
g14
(g18
S'\x00\x00\x00\x00\x00\x00F@'
p1753
tp1754
Rp1755
sa(dp1756
g8
I10
sg9
I286
sg10
I14
sg11
I4720
sg12
I434
sg13
g14
(g18
S'\x00\x00\x00\x00\x00\x00\x10@'
p1757
tp1758
Rp1759
sa(dp1760
g8
I11
sg9
I292
sg10
I0
sg11
I4882
sg12
I435
sg13
g14
(g18
S'\x00\x00\x00\x00\x00\x00\x14@'
p1761
tp1762
Rp1763
sa(dp1764
g8
I11
sg9
I254
sg10
I2
sg11
I3920
sg12
I436
sg13
g14
(g18
S'\x00\x00\x00\x00\x00@P@'
p1765
tp1766
Rp1767
sa(dp1768
g8
I11
sg9
I239
sg10
I3
sg11
I3396
sg12
I437
sg13
g14
(g18
S'\x00\x00\x00\x00\x00\x80B@'
p1769
tp1770
Rp1771
sa(dp1772
g8
I11
sg9
I266
sg10
I4
sg11
I4662
sg12
I438
sg13
g14
(g18
S'\x00\x00\x00\x00\x00\x00*@'
p1773
tp1774
Rp1775
sa(dp1776
g8
I11
sg9
I227
sg10
I5
sg11
I2991
sg12
I439
sg13
g14
(g18
S'\x00\x00\x00\x00\x00@R@'
p1777
tp1778
Rp1779
sa(dp1780
g8
I11
sg9
I250
sg10
I6
sg11
I4588
sg12
I440
sg13
g14
(g18
S'\x00\x00\x00\x00\x00\x00*@'
p1781
tp1782
Rp1783
sa(dp1784
g8
I11
sg9
I219
sg10
I8
sg11
I5026
sg12
I441
sg13
g14
(g18
S'\x00\x00\x00\x00\x00\x00\x1c@'
p1785
tp1786
Rp1787
sa(dp1788
g8
I11
sg9
I272
sg10
I10
sg11
I4233
sg12
I442
sg13
g14
(g18
S'\x00\x00\x00\x00\x00\x00J@'
p1789
tp1790
Rp1791
sa(dp1792
g8
I11
sg9
I213
sg10
I11
sg11
I5251
sg12
I443
sg13
g14
(g18
S'\x00\x00\x00\x00\x00\x00$@'
p1793
tp1794
Rp1795
sa(dp1796
g8
I11
sg9
I261
sg10
I12
sg11
I4775
sg12
I444
sg13
g14
(g18
S'\x00\x00\x00\x00\x00\x00,@'
p1797
tp1798
Rp1799
sa(dp1800
g8
I11
sg9
I233
sg10
I13
sg11
I4868
sg12
I445
sg13
g14
(g18
S'\x00\x00\x00\x00\x00\x00\x10@'
p1801
tp1802
Rp1803
sa(dp1804
g8
I11
sg9
I224
sg10
I15
sg11
I4395
sg12
I446
sg13
g14
(g18
S'\x00\x00\x00\x00\x00\x004@'
p1805
tp1806
Rp1807
sa(dp1808
g8
I12
sg9
I249
sg10
I0
sg11
I3970
sg12
I447
sg13
g14
(g18
S'\x00\x00\x00\x00\x00\x00T@'
p1809
tp1810
Rp1811
sa(dp1812
g8
I12
sg9
I224
sg10
I3
sg11
I4692
sg12
I448
sg13
g14
(g18
S'\x00\x00\x00\x00\x00\x00"@'
p1813
tp1814
Rp1815
sa(dp1816
g8
I12
sg9
I205
sg10
I5
sg11
I4798
sg12
I449
sg13
g14
(g18
S'\x00\x00\x00\x00\x00\x00\x08@'
p1817
tp1818
Rp1819
sa(dp1820
g8
I12
sg9
I284
sg10
I7
sg11
I5153
sg12
I450
sg13
g14
(g18
S'\x00\x00\x00\x00\x00\x00&@'
p1821
tp1822
Rp1823
sa(dp1824
g8
I12
sg9
I297
sg10
I9
sg11
I2978
sg12
I451
sg13
g14
(g18
S'\x00\x00\x00\x00\x00\x00W@'
p1825
tp1826
Rp1827
sa(dp1828
g8
I12
sg9
I277
sg10
I10
sg11
I4965
sg12
I452
sg13
g14
(g18
S'\x00\x00\x00\x00\x00\x00\x18@'
p1829
tp1830
Rp1831
sa(dp1832
g8
I12
sg9
I285
sg10
I11
sg11
I5430
sg12
I453
sg13
g14
(g18
S'\x00\x00\x00\x00\x00\x80T@'
p1833
tp1834
Rp1835
sa(dp1836
g8
I12
sg9
I250
sg10
I12
sg11
I4156
sg12
I454
sg13
g14
(g18
S'\x00\x00\x00\x00\x00\x003@'
p1837
tp1838
Rp1839
sa(dp1840
g8
I12
sg9
I269
sg10
I13
sg11
I4560
sg12
I455
sg13
g14
(g18
S'\x00\x00\x00\x00\x00\x00$@'
p1841
tp1842
Rp1843
sa(dp1844
g8
I12
sg9
I201
sg10
I14
sg11
I4552
sg12
I456
sg13
g14
(g18
S'\x00\x00\x00\x00\x00\x002@'
p1845
tp1846
Rp1847
sa(dp1848
g8
I12
sg9
I218
sg10
I15
sg11
I3531
sg12
I457
sg13
g14
(g18
S'\x00\x00\x00\x00\x00\xc0R@'
p1849
tp1850
Rp1851
sa(dp1852
g8
I13
sg9
I234
sg10
I1
sg11
I4507
sg12
I458
sg13
g14
(g18
S'\x00\x00\x00\x00\x00\x00,@'
p1853
tp1854
Rp1855
sa(dp1856
g8
I13
sg9
I292
sg10
I2
sg11
I4309
sg12
I459
sg13
g14
(g18
S'\x00\x00\x00\x00\x00\x00,@'
p1857
tp1858
Rp1859
sa(dp1860
g8
I13
sg9
I286
sg10
I3
sg11
I4729
sg12
I460
sg13
g14
(g18
S'\x00\x00\x00\x00\x00\x00\x1c@'
p1861
tp1862
Rp1863
sa(dp1864
g8
I13
sg9
I247
sg10
I4
sg11
I5211
sg12
I461
sg13
g14
(g18
S'\x00\x00\x00\x00\x00\x00 @'
p1865
tp1866
Rp1867
sa(dp1868
g8
I13
sg9
I277
sg10
I5
sg11
I4165
sg12
I462
sg13
g14
(g18
S'\x00\x00\x00\x00\x00\x00?@'
p1869
tp1870
Rp1871
sa(dp1872
g8
I13
sg9
I288
sg10
I6
sg11
I4643
sg12
I463
sg13
g14
(g18
S'\x00\x00\x00\x00\x00\x00,@'
p1873
tp1874
Rp1875
sa(dp1876
g8
I13
sg9
I280
sg10
I8
sg11
I3163
sg12
I464
sg13
g14
(g18
S'\x00\x00\x00\x00\x00\x80b@'
p1877
tp1878
Rp1879
sa(dp1880
g8
I13
sg9
I202
sg10
I9
sg11
I3891
sg12
I465
sg13
g14
(g18
S'\x00\x00\x00\x00\x00\x00C@'
p1881
tp1882
Rp1883
sa(dp1884
g8
I13
sg9
I244
sg10
I10
sg11
I4954
sg12
I466
sg13
g14
(g18
S'\x00\x00\x00\x00\x00\x00*@'
p1885
tp1886
Rp1887
sa(dp1888
g8
I13
sg9
I288
sg10
I12
sg11
I4828
sg12
I467
sg13
g14
(g18
S'\x00\x00\x00\x00\x00\x00"@'
p1889
tp1890
Rp1891
sa(dp1892
g8
I13
sg9
I238
sg10
I14
sg11
I5022
sg12
I468
sg13
g14
(g18
S'\x00\x00\x00\x00\x00\x00(@'
p1893
tp1894
Rp1895
sa(dp1896
g8
I13
sg9
I226
sg10
I15
sg11
I4606
sg12
I469
sg13
g14
(g18
S'\x00\x00\x00\x00\x00\x00&@'
p1897
tp1898
Rp1899
sa(dp1900
g8
I14
sg9
I257
sg10
I0
sg11
I4505
sg12
I470
sg13
g14
(g18
S'\x00\x00\x00\x00\x00\x005@'
p1901
tp1902
Rp1903
sa(dp1904
g8
I14
sg9
I204
sg10
I1
sg11
I3539
sg12
I471
sg13
g14
(g18
S'\x00\x00\x00\x00\x00@R@'
p1905
tp1906
Rp1907
sa(dp1908
g8
I14
sg9
I299
sg10
I4
sg11
I4814
sg12
I472
sg13
g14
(g18
S'\x00\x00\x00\x00\x00\x00 @'
p1909
tp1910
Rp1911
sa(dp1912
g8
I14
sg9
I209
sg10
I5
sg11
I4617
sg12
I473
sg13
g14
(g18
S'\x00\x00\x00\x00\x00\x00"@'
p1913
tp1914
Rp1915
sa(dp1916
g8
I14
sg9
I257
sg10
I6
sg11
I4344
sg12
I474
sg13
g14
(g18
S'\x00\x00\x00\x00\x00\x00,@'
p1917
tp1918
Rp1919
sa(dp1920
g8
I14
sg9
I247
sg10
I9
sg11
I4210
sg12
I475
sg13
g14
(g18
S'\x00\x00\x00\x00\x00\x00B@'
p1921
tp1922
Rp1923
sa(dp1924
g8
I14
sg9
I231
sg10
I12
sg11
I3050
sg12
I476
sg13
g14
(g18
S'\x00\x00\x00\x00\x00\x80W@'
p1925
tp1926
Rp1927
sa(dp1928
g8
I14
sg9
I203
sg10
I13
sg11
I4719
sg12
I477
sg13
g14
(g18
S'\x00\x00\x00\x00\x00\x00&@'
p1929
tp1930
Rp1931
sa(dp1932
g8
I14
sg9
I283
sg10
I15
sg11
I3882
sg12
I478
sg13
g14
(g18
S'\x00\x00\x00\x00\x00\x00O@'
p1933
tp1934
Rp1935
sa(dp1936
g8
I15
sg9
I248
sg10
I0
sg11
I4686
sg12
I479
sg13
g14
(g18
S'\x00\x00\x00\x00\x00\x00.@'
p1937
tp1938
Rp1939
sa(dp1940
g8
I15
sg9
I279
sg10
I1
sg11
I2984
sg12
I480
sg13
g14
(g18
S'\x00\x00\x00\x00\x00\x00V@'
p1941
tp1942
Rp1943
sa(dp1944
g8
I15
sg9
I203
sg10
I3
sg11
I3851
sg12
I481
sg13
g14
(g18
S'\x00\x00\x00\x00\x00\x009@'
p1945
tp1946
Rp1947
sa(dp1948
g8
I15
sg9
I287
sg10
I6
sg11
I5297
sg12
I482
sg13
g14
(g18
S'\x00\x00\x00\x00\x00\x80A@'
p1949
tp1950
Rp1951
sa(dp1952
g8
I15
sg9
I268
sg10
I8
sg11
I5059
sg12
I483
sg13
g14
(g18
S'\x00\x00\x00\x00\x00\x00&@'
p1953
tp1954
Rp1955
sa(dp1956
g8
I15
sg9
I283
sg10
I9
sg11
I4549
sg12
I484
sg13
g14
(g18
S'\x00\x00\x00\x00\x00\x00&@'
p1957
tp1958
Rp1959
sa(dp1960
g8
I15
sg9
I220
sg10
I11
sg11
I3448
sg12
I485
sg13
g14
(g18
S'\x00\x00\x00\x00\x00\x00H@'
p1961
tp1962
Rp1963
sa(dp1964
g8
I15
sg9
I219
sg10
I13
sg11
I4522
sg12
I486
sg13
g14
(g18
S'\x00\x00\x00\x00\x00\x00,@'
p1965
tp1966
Rp1967
sa(dp1968
g8
I15
sg9
I274
sg10
I14
sg11
I4348
sg12
I487
sg13
g14
(g18
S'\x00\x00\x00\x00\x00\x005@'
p1969
tp1970
Rp1971
sa(dp1972
g8
I15
sg9
I280
sg10
I15
sg11
I4718
sg12
I488
sg13
g14
(g18
S'\x00\x00\x00\x00\x00\x80O@'
p1973
tp1974
Rp1975
sa(dp1976
g8
I0
sg9
I326
sg10
I0
sg11
I4049
sg12
I489
sg13
g14
(g18
S'\x00\x00\x00\x00\x00\x80\\@'
p1977
tp1978
Rp1979
sa(dp1980
g8
I0
sg9
I344
sg10
I2
sg11
I4777
sg12
I490
sg13
g14
(g18
S'\x00\x00\x00\x00\x00\x00 @'
p1981
tp1982
Rp1983
sa(dp1984
g8
I0
sg9
I379
sg10
I3
sg11
I4236
sg12
I491
sg13
g14
(g18
S'\x00\x00\x00\x00\x00\x00,@'
p1985
tp1986
Rp1987
sa(dp1988
g8
I0
sg9
I367
sg10
I6
sg11
I3888
sg12
I492
sg13
g14
(g18
S'\x00\x00\x00\x00\x00@Q@'
p1989
tp1990
Rp1991
sa(dp1992
g8
I0
sg9
I350
sg10
I8
sg11
I4700
sg12
I493
sg13
g14
(g18
S'\x00\x00\x00\x00\x00\x00,@'
p1993
tp1994
Rp1995
sa(dp1996
g8
I0
sg9
I301
sg10
I9
sg11
I4648
sg12
I494
sg13
g14
(g18
S'\x00\x00\x00\x00\x00\x00.@'
p1997
tp1998
Rp1999
sa(dp2000
g8
I0
sg9
I326
sg10
I12
sg11
I4525
sg12
I495
sg13
g14
(g18
S'\x00\x00\x00\x00\x00\x00*@'
p2001
tp2002
Rp2003
sa(dp2004
g8
I0
sg9
I311
sg10
I15
sg11
I3148
sg12
I496
sg13
g14
(g18
S'\x00\x00\x00\x00\x00\xc0\\@'
p2005
tp2006
Rp2007
sa(dp2008
g8
I1
sg9
I337
sg10
I0
sg11
I4278
sg12
I497
sg13
g14
(g18
S'\x00\x00\x00\x00\x00\x00,@'
p2009
tp2010
Rp2011
sa(dp2012
g8
I1
sg9
I316
sg10
I1
sg11
I4181
sg12
I498
sg13
g14
(g18
S'\x00\x00\x00\x00\x00\x80B@'
p2013
tp2014
Rp2015
sa(dp2016
g8
I1
sg9
I345
sg10
I2
sg11
I4842
sg12
I499
sg13
g14
(g18
S'\x00\x00\x00\x00\x00\x00\x1c@'
p2017
tp2018
Rp2019
sa(dp2020
g8
I1
sg9
I378
sg10
I3
sg11
I4473
sg12
I500
sg13
g14
(g18
S'\x00\x00\x00\x00\x00\x00*@'
p2021
tp2022
Rp2023
sa(dp2024
g8
I1
sg9
I353
sg10
I4
sg11
I4673
sg12
I501
sg13
g14
(g18
S'\x00\x00\x00\x00\x00\x00 @'
p2025
tp2026
Rp2027
sa(dp2028
g8
I1
sg9
I311
sg10
I5
sg11
I3601
sg12
I502
sg13
g14
(g18
S'\x00\x00\x00\x00\x00@X@'
p2029
tp2030
Rp2031
sa(dp2032
g8
I1
sg9
I313
sg10
I8
sg11
I5090
sg12
I503
sg13
g14
(g18
S'\x00\x00\x00\x00\x00\x00\x18@'
p2033
tp2034
Rp2035
sa(dp2036
g8
I1
sg9
I397
sg10
I10
sg11
I4909
sg12
I504
sg13
g14
(g18
S'\x00\x00\x00\x00\x00\x00\x08@'
p2037
tp2038
Rp2039
sa(dp2040
g8
I1
sg9
I380
sg10
I11
sg11
I2979
sg12
I505
sg13
g14
(g18
S'\x00\x00\x00\x00\x00\x80V@'
p2041
tp2042
Rp2043
sa(dp2044
g8
I1
sg9
I375
sg10
I12
sg11
I4865
sg12
I506
sg13
g14
(g18
S'\x00\x00\x00\x00\x00\x00\x10@'
p2045
tp2046
Rp2047
sa(dp2048
g8
I1
sg9
I377
sg10
I13
sg11
I3810
sg12
I507
sg13
g14
(g18
S'\x00\x00\x00\x00\x00\x00J@'
p2049
tp2050
Rp2051
sa(dp2052
g8
I1
sg9
I372
sg10
I15
sg11
I4721
sg12
I508
sg13
g14
(g18
S'\x00\x00\x00\x00\x00\x005@'
p2053
tp2054
Rp2055
sa(dp2056
g8
I2
sg9
I384
sg10
I1
sg11
I4806
sg12
I509
sg13
g14
(g18
S'\x00\x00\x00\x00\x00\x003@'
p2057
tp2058
Rp2059
sa(dp2060
g8
I2
sg9
I305
sg10
I2
sg11
I4632
sg12
I510
sg13
g14
(g18
S'\x00\x00\x00\x00\x00\x00(@'
p2061
tp2062
Rp2063
sa(dp2064
g8
I2
sg9
I306
sg10
I3
sg11
I4107
sg12
I511
sg13
g14
(g18
S'\x00\x00\x00\x00\x00\x000@'
p2065
tp2066
Rp2067
sa(dp2068
g8
I2
sg9
I347
sg10
I6
sg11
I3253
sg12
I512
sg13
g14
(g18
S'\x00\x00\x00\x00\x00\x00b@'
p2069
tp2070
Rp2071
sa(dp2072
g8
I2
sg9
I304
sg10
I7
sg11
I4722
sg12
I513
sg13
g14
(g18
S'\x00\x00\x00\x00\x00\x00 @'
p2073
tp2074
Rp2075
sa(dp2076
g8
I2
sg9
I325
sg10
I9
sg11
I4414
sg12
I514
sg13
g14
(g18
S'\x00\x00\x00\x00\x00\x00$@'
p2077
tp2078
Rp2079
sa(dp2080
g8
I2
sg9
I316
sg10
I10
sg11
I4519
sg12
I515
sg13
g14
(g18
S'\x00\x00\x00\x00\x00\x00"@'
p2081
tp2082
Rp2083
sa(dp2084
g8
I2
sg9
I360
sg10
I12
sg11
I4271
sg12
I516
sg13
g14
(g18
S'\x00\x00\x00\x00\x00\x002@'
p2085
tp2086
Rp2087
sa(dp2088
g8
I2
sg9
I399
sg10
I14
sg11
I3696
sg12
I517
sg13
g14
(g18
S'\x00\x00\x00\x00\x00\x00=@'
p2089
tp2090
Rp2091
sa(dp2092
g8
I2
sg9
I370
sg10
I15
sg11
I4972
sg12
I518
sg13
g14
(g18
S'\x00\x00\x00\x00\x00\x00(@'
p2093
tp2094
Rp2095
sa(dp2096
g8
I3
sg9
I328
sg10
I0
sg11
I4919
sg12
I519
sg13
g14
(g18
S'\x00\x00\x00\x00\x00\x006@'
p2097
tp2098
Rp2099
sa(dp2100
g8
I3
sg9
I332
sg10
I1
sg11
I4283
sg12
I520
sg13
g14
(g18
S'\x00\x00\x00\x00\x00\x00,@'
p2101
tp2102
Rp2103
sa(dp2104
g8
I3
sg9
I309
sg10
I2
sg11
I3459
sg12
I521
sg13
g14
(g18
S'\x00\x00\x00\x00\x00@g@'
p2105
tp2106
Rp2107
sa(dp2108
g8
I3
sg9
I375
sg10
I6
sg11
I4947
sg12
I522
sg13
g14
(g18
S'\x00\x00\x00\x00\x00\x00\x1c@'
p2109
tp2110
Rp2111
sa(dp2112
g8
I3
sg9
I333
sg10
I7
sg11
I4764
sg12
I523
sg13
g14
(g18
S'\x00\x00\x00\x00\x00\x00\x00@'
p2113
tp2114
Rp2115
sa(dp2116
g8
I3
sg9
I398
sg10
I8
sg11
I4361
sg12
I524
sg13
g14
(g18
S'\x00\x00\x00\x00\x00\x00.@'
p2117
tp2118
Rp2119
sa(dp2120
g8
I3
sg9
I352
sg10
I9
sg11
I4811
sg12
I525
sg13
g14
(g18
S'\x00\x00\x00\x00\x00\x00\xf0?'
p2121
tp2122
Rp2123
sa(dp2124
g8
I3
sg9
I373
sg10
I10
sg11
I4544
sg12
I526
sg13
g14
(g18
S'\x00\x00\x00\x00\x00\x00\x1c@'
p2125
tp2126
Rp2127
sa(dp2128
g8
I3
sg9
I302
sg10
I11
sg11
I4716
sg12
I527
sg13
g14
(g18
S'\x00\x00\x00\x00\x00\x00\x18@'
p2129
tp2130
Rp2131
sa(dp2132
g8
I3
sg9
I346
sg10
I12
sg11
I3821
sg12
I528
sg13
g14
(g18
S'\x00\x00\x00\x00\x00\x80G@'
p2133
tp2134
Rp2135
sa(dp2136
g8
I3
sg9
I337
sg10
I13
sg11
I4080
sg12
I529
sg13
g14
(g18
S'\x00\x00\x00\x00\x00\x001@'
p2137
tp2138
Rp2139
sa(dp2140
g8
I4
sg9
I366
sg10
I1
sg11
I4676
sg12
I530
sg13
g14
(g18
S'\x00\x00\x00\x00\x00\x00(@'
p2141
tp2142
Rp2143
sa(dp2144
g8
I4
sg9
I398
sg10
I2
sg11
I4916
sg12
I531
sg13
g14
(g18
S'\x00\x00\x00\x00\x00\x00\x14@'
p2145
tp2146
Rp2147
sa(dp2148
g8
I4
sg9
I364
sg10
I4
sg11
I4377
sg12
I532
sg13
g14
(g18
S'\x00\x00\x00\x00\x00\xe0a@'
p2149
tp2150
Rp2151
sa(dp2152
g8
I4
sg9
I348
sg10
I5
sg11
I4749
sg12
I533
sg13
g14
(g18
S'\x00\x00\x00\x00\x00\x00\x00@'
p2153
tp2154
Rp2155
sa(dp2156
g8
I4
sg9
I332
sg10
I7
sg11
I4851
sg12
I534
sg13
g14
(g18
S'\x00\x00\x00\x00\x00\x00\x18@'
p2157
tp2158
Rp2159
sa(dp2160
g8
I4
sg9
I324
sg10
I9
sg11
I4241
sg12
I535
sg13
g14
(g18
S'\x00\x00\x00\x00\x00@[@'
p2161
tp2162
Rp2163
sa(dp2164
g8
I4
sg9
I363
sg10
I11
sg11
I4558
sg12
I536
sg13
g14
(g18
S'\x00\x00\x00\x00\x00\x00 @'
p2165
tp2166
Rp2167
sa(dp2168
g8
I4
sg9
I319
sg10
I13
sg11
I2988
sg12
I537
sg13
g14
(g18
S'\x00\x00\x00\x00\x00@S@'
p2169
tp2170
Rp2171
sa(dp2172
g8
I4
sg9
I324
sg10
I15
sg11
I5059
sg12
I538
sg13
g14
(g18
S'\x00\x00\x00\x00\x00\x00\xf0?'
p2173
tp2174
Rp2175
sa(dp2176
g8
I5
sg9
I396
sg10
I0
sg11
I4729
sg12
I539
sg13
g14
(g18
S'\x00\x00\x00\x00\x00\x00"@'
p2177
tp2178
Rp2179
sa(dp2180
g8
I5
sg9
I349
sg10
I2
sg11
I4410
sg12
I540
sg13
g14
(g18
S'\x00\x00\x00\x00\x00\x00.@'
p2181
tp2182
Rp2183
sa(dp2184
g8
I5
sg9
I322
sg10
I4
sg11
I5201
sg12
I541
sg13
g14
(g18
S'\x00\x00\x00\x00\x00\x00:@'
p2185
tp2186
Rp2187
sa(dp2188
g8
I5
sg9
I361
sg10
I6
sg11
I4649
sg12
I542
sg13
g14
(g18
S'\x00\x00\x00\x00\x00\x00\x10@'
p2189
tp2190
Rp2191
sa(dp2192
g8
I5
sg9
I362
sg10
I7
sg11
I4550
sg12
I543
sg13
g14
(g18
S'\x00\x00\x00\x00\x00@X@'
p2193
tp2194
Rp2195
sa(dp2196
g8
I5
sg9
I375
sg10
I8
sg11
I5107
sg12
I544
sg13
g14
(g18
S'\x00\x00\x00\x00\x00\x006@'
p2197
tp2198
Rp2199
sa(dp2200
g8
I5
sg9
I396
sg10
I10
sg11
I2919
sg12
I545
sg13
g14
(g18
S'\x00\x00\x00\x00\x00\xc0S@'
p2201
tp2202
Rp2203
sa(dp2204
g8
I5
sg9
I340
sg10
I11
sg11
I3751
sg12
I546
sg13
g14
(g18
S'\x00\x00\x00\x00\x00\x00<@'
p2205
tp2206
Rp2207
sa(dp2208
g8
I5
sg9
I304
sg10
I12
sg11
I3404
sg12
I547
sg13
g14
(g18
S'\x00\x00\x00\x00\x00\x00G@'
p2209
tp2210
Rp2211
sa(dp2212
g8
I6
sg9
I368
sg10
I1
sg11
I4569
sg12
I548
sg13
g14
(g18
S'\x00\x00\x00\x00\x00\x00(@'
p2213
tp2214
Rp2215
sa(dp2216
g8
I6
sg9
I368
sg10
I2
sg11
I4666
sg12
I549
sg13
g14
(g18
S'\x00\x00\x00\x00\x00\x00$@'
p2217
tp2218
Rp2219
sa(dp2220
g8
I6
sg9
I373
sg10
I3
sg11
I3006
sg12
I550
sg13
g14
(g18
S'\x00\x00\x00\x00\x00\xc0W@'
p2221
tp2222
Rp2223
sa(dp2224
g8
I6
sg9
I321
sg10
I5
sg11
I4846
sg12
I551
sg13
g14
(g18
S'\x00\x00\x00\x00\x00\x00\x00@'
p2225
tp2226
Rp2227
sa(dp2228
g8
I6
sg9
I352
sg10
I7
sg11
I3715
sg12
I552
sg13
g14
(g18
S'\x00\x00\x00\x00\x00\x006@'
p2229
tp2230
Rp2231
sa(dp2232
g8
I6
sg9
I357
sg10
I9
sg11
I5026
sg12
I553
sg13
g14
(g18
S'\x00\x00\x00\x00\x00\x00\xf0?'
p2233
tp2234
Rp2235
sa(dp2236
g8
I6
sg9
I347
sg10
I11
sg11
I4769
sg12
I554
sg13
g14
(g18
S'\x00\x00\x00\x00\x00\x00V@'
p2237
tp2238
Rp2239
sa(dp2240
g8
I6
sg9
I334
sg10
I13
sg11
I4293
sg12
I555
sg13
g14
(g18
S'\x00\x00\x00\x00\x00\x001@'
p2241
tp2242
Rp2243
sa(dp2244
g8
I6
sg9
I371
sg10
I14
sg11
I3481
sg12
I556
sg13
g14
(g18
S'\x00\x00\x00\x00\x00\x80T@'
p2245
tp2246
Rp2247
sa(dp2248
g8
I7
sg9
I321
sg10
I0
sg11
I2970
sg12
I557
sg13
g14
(g18
S'\x00\x00\x00\x00\x00@R@'
p2249
tp2250
Rp2251
sa(dp2252
g8
I7
sg9
I386
sg10
I2
sg11
I5558
sg12
I558
sg13
g14
(g18
S'\x00\x00\x00\x00\x00\x00$@'
p2253
tp2254
Rp2255
sa(dp2256
g8
I7
sg9
I326
sg10
I3
sg11
I4413
sg12
I559
sg13
g14
(g18
S'\x00\x00\x00\x00\x00\x00$@'
p2257
tp2258
Rp2259
sa(dp2260
g8
I7
sg9
I320
sg10
I4
sg11
I3388
sg12
I560
sg13
g14
(g18
S'\x00\x00\x00\x00\x00\x00G@'
p2261
tp2262
Rp2263
sa(dp2264
g8
I7
sg9
I335
sg10
I5
sg11
I4328
sg12
I561
sg13
g14
(g18
S'\x00\x00\x00\x00\x00\x00:@'
p2265
tp2266
Rp2267
sa(dp2268
g8
I7
sg9
I396
sg10
I7
sg11
I5264
sg12
I562
sg13
g14
(g18
S'\x00\x00\x00\x00\x00\x008@'
p2269
tp2270
Rp2271
sa(dp2272
g8
I7
sg9
I307
sg10
I8
sg11
I5467
sg12
I563
sg13
g14
(g18
S'\x00\x00\x00\x00\x00\x00.@'
p2273
tp2274
Rp2275
sa(dp2276
g8
I7
sg9
I356
sg10
I9
sg11
I4875
sg12
I564
sg13
g14
(g18
S'\x00\x00\x00\x00\x00\x00*@'
p2277
tp2278
Rp2279
sa(dp2280
g8
I7
sg9
I379
sg10
I10
sg11
I4674
sg12
I565
sg13
g14
(g18
S'\x00\x00\x00\x00\x00@Y@'
p2281
tp2282
Rp2283
sa(dp2284
g8
I7
sg9
I326
sg10
I12
sg11
I4865
sg12
I566
sg13
g14
(g18
S'\x00\x00\x00\x00\x00\x00 @'
p2285
tp2286
Rp2287
sa(dp2288
g8
I7
sg9
I346
sg10
I14
sg11
I4621
sg12
I567
sg13
g14
(g18
S'\x00\x00\x00\x00\x00\x80T@'
p2289
tp2290
Rp2291
sa(dp2292
g8
I8
sg9
I303
sg10
I4
sg11
I3096
sg12
I568
sg13
g14
(g18
S'\x00\x00\x00\x00\x00\x00Y@'
p2293
tp2294
Rp2295
sa(dp2296
g8
I8
sg9
I397
sg10
I5
sg11
I3842
sg12
I569
sg13
g14
(g18
S'\x00\x00\x00\x00\x00@P@'
p2297
tp2298
Rp2299
sa(dp2300
g8
I8
sg9
I398
sg10
I6
sg11
I4357
sg12
I570
sg13
g14
(g18
S'\x00\x00\x00\x00\x00\x00,@'
p2301
tp2302
Rp2303
sa(dp2304
g8
I8
sg9
I303
sg10
I7
sg11
I3453
sg12
I571
sg13
g14
(g18
S'\x00\x00\x00\x00\x00\x00M@'
p2305
tp2306
Rp2307
sa(dp2308
g8
I8
sg9
I341
sg10
I8
sg11
I4514
sg12
I572
sg13
g14
(g18
S'\x00\x00\x00\x00\x00@V@'
p2309
tp2310
Rp2311
sa(dp2312
g8
I8
sg9
I341
sg10
I9
sg11
I4665
sg12
I573
sg13
g14
(g18
S'\x00\x00\x00\x00\x00\x00\x08@'
p2313
tp2314
Rp2315
sa(dp2316
g8
I8
sg9
I312
sg10
I10
sg11
I4805
sg12
I574
sg13
g14
(g18
S'\x00\x00\x00\x00\x00\x00\x1c@'
p2317
tp2318
Rp2319
sa(dp2320
g8
I8
sg9
I377
sg10
I14
sg11
I4786
sg12
I575
sg13
g14
(g18
S'\x00\x00\x00\x00\x00\x00\xf0?'
p2321
tp2322
Rp2323
sa(dp2324
g8
I9
sg9
I314
sg10
I1
sg11
I4521
sg12
I576
sg13
g14
(g18
S'\x00\x00\x00\x00\x00\x00"@'
p2325
tp2326
Rp2327
sa(dp2328
g8
I9
sg9
I390
sg10
I2
sg11
I5246
sg12
I577
sg13
g14
(g18
S'\x00\x00\x00\x00\x00\x00\x08@'
p2329
tp2330
Rp2331
sa(dp2332
g8
I9
sg9
I334
sg10
I4
sg11
I4305
sg12
I578
sg13
g14
(g18
S'\x00\x00\x00\x00\x00\x004@'
p2333
tp2334
Rp2335
sa(dp2336
g8
I9
sg9
I334
sg10
I5
sg11
I4583
sg12
I579
sg13
g14
(g18
S'\x00\x00\x00\x00\x00\x00\x1c@'
p2337
tp2338
Rp2339
sa(dp2340
g8
I9
sg9
I389
sg10
I6
sg11
I4837
sg12
I580
sg13
g14
(g18
S'\x00\x00\x00\x00\x00\x00Q@'
p2341
tp2342
Rp2343
sa(dp2344
g8
I9
sg9
I351
sg10
I7
sg11
I4400
sg12
I581
sg13
g14
(g18
S'\x00\x00\x00\x00\x00\x00*@'
p2345
tp2346
Rp2347
sa(dp2348
g8
I9
sg9
I342
sg10
I8
sg11
I3869
sg12
I582
sg13
g14
(g18
S'\x00\x00\x00\x00\x00\x00M@'
p2349
tp2350
Rp2351
sa(dp2352
g8
I9
sg9
I366
sg10
I9
sg11
I4932
sg12
I583
sg13
g14
(g18
S'\x00\x00\x00\x00\x00\x00\xf0?'
p2353
tp2354
Rp2355
sa(dp2356
g8
I9
sg9
I347
sg10
I10
sg11
I3465
sg12
I584
sg13
g14
(g18
S'\x00\x00\x00\x00\x00\x00R@'
p2357
tp2358
Rp2359
sa(dp2360
g8
I9
sg9
I347
sg10
I11
sg11
I5052
sg12
I585
sg13
g14
(g18
S'\x00\x00\x00\x00\x00\x00\x14@'
p2361
tp2362
Rp2363
sa(dp2364
g8
I9
sg9
I350
sg10
I13
sg11
I4680
sg12
I586
sg13
g14
(g18
S'\x00\x00\x00\x00\x00\x00"@'
p2365
tp2366
Rp2367
sa(dp2368
g8
I9
sg9
I334
sg10
I14
sg11
I2993
sg12
I587
sg13
g14
(g18
S'\x00\x00\x00\x00\x00\x80T@'
p2369
tp2370
Rp2371
sa(dp2372
g8
I10
sg9
I306
sg10
I1
sg11
I3757
sg12
I588
sg13
g14
(g18
S'\x00\x00\x00\x00\x00\x005@'
p2373
tp2374
Rp2375
sa(dp2376
g8
I10
sg9
I359
sg10
I2
sg11
I5122
sg12
I589
sg13
g14
(g18
S'\x00\x00\x00\x00\x00@W@'
p2377
tp2378
Rp2379
sa(dp2380
g8
I10
sg9
I305
sg10
I4
sg11
I4858
sg12
I590
sg13
g14
(g18
S'\x00\x00\x00\x00\x00\x00\xf0?'
p2381
tp2382
Rp2383
sa(dp2384
g8
I10
sg9
I366
sg10
I7
sg11
I2861
sg12
I591
sg13
g14
(g18
S'\x00\x00\x00\x00\x00\x80L@'
p2385
tp2386
Rp2387
sa(dp2388
g8
I10
sg9
I302
sg10
I8
sg11
I4803
sg12
I592
sg13
g14
(g18
S'\x00\x00\x00\x00\x00\x00\x10@'
p2389
tp2390
Rp2391
sa(dp2392
g8
I10
sg9
I312
sg10
I10
sg11
I4315
sg12
I593
sg13
g14
(g18
S'\x00\x00\x00\x00\x00\x001@'
p2393
tp2394
Rp2395
sa(dp2396
g8
I10
sg9
I349
sg10
I11
sg11
I5327
sg12
I594
sg13
g14
(g18
S'\x00\x00\x00\x00\x00\x00*@'
p2397
tp2398
Rp2399
sa(dp2400
g8
I10
sg9
I349
sg10
I12
sg11
I4553
sg12
I595
sg13
g14
(g18
S'\x00\x00\x00\x00\x00\x006@'
p2401
tp2402
Rp2403
sa(dp2404
g8
I10
sg9
I357
sg10
I13
sg11
I3343
sg12
I596
sg13
g14
(g18
S'\x00\x00\x00\x00\x00\x00F@'
p2405
tp2406
Rp2407
sa(dp2408
g8
I10
sg9
I386
sg10
I14
sg11
I4624
sg12
I597
sg13
g14
(g18
S'\x00\x00\x00\x00\x00\x00\x10@'
p2409
tp2410
Rp2411
sa(dp2412
g8
I11
sg9
I392
sg10
I0
sg11
I4787
sg12
I598
sg13
g14
(g18
S'\x00\x00\x00\x00\x00\x00\x14@'
p2413
tp2414
Rp2415
sa(dp2416
g8
I11
sg9
I354
sg10
I2
sg11
I3885
sg12
I599
sg13
g14
(g18
S'\x00\x00\x00\x00\x00@P@'
p2417
tp2418
Rp2419
sa(dp2420
g8
I11
sg9
I339
sg10
I3
sg11
I3333
sg12
I600
sg13
g14
(g18
S'\x00\x00\x00\x00\x00\x80B@'
p2421
tp2422
Rp2423
sa(dp2424
g8
I11
sg9
I366
sg10
I4
sg11
I4575
sg12
I601
sg13
g14
(g18
S'\x00\x00\x00\x00\x00\x00*@'
p2425
tp2426
Rp2427
sa(dp2428
g8
I11
sg9
I327
sg10
I5
sg11
I2964
sg12
I602
sg13
g14
(g18
S'\x00\x00\x00\x00\x00@R@'
p2429
tp2430
Rp2431
sa(dp2432
g8
I11
sg9
I350
sg10
I6
sg11
I4501
sg12
I603
sg13
g14
(g18
S'\x00\x00\x00\x00\x00\x00*@'
p2433
tp2434
Rp2435
sa(dp2436
g8
I11
sg9
I319
sg10
I8
sg11
I4933
sg12
I604
sg13
g14
(g18
S'\x00\x00\x00\x00\x00\x00\x1c@'
p2437
tp2438
Rp2439
sa(dp2440
g8
I11
sg9
I372
sg10
I10
sg11
I4350
sg12
I605
sg13
g14
(g18
S'\x00\x00\x00\x00\x00\x00J@'
p2441
tp2442
Rp2443
sa(dp2444
g8
I11
sg9
I313
sg10
I11
sg11
I5161
sg12
I606
sg13
g14
(g18
S'\x00\x00\x00\x00\x00\x00$@'
p2445
tp2446
Rp2447
sa(dp2448
g8
I11
sg9
I361
sg10
I12
sg11
I4689
sg12
I607
sg13
g14
(g18
S'\x00\x00\x00\x00\x00\x00,@'
p2449
tp2450
Rp2451
sa(dp2452
g8
I11
sg9
I333
sg10
I13
sg11
I4772
sg12
I608
sg13
g14
(g18
S'\x00\x00\x00\x00\x00\x00\x10@'
p2453
tp2454
Rp2455
sa(dp2456
g8
I11
sg9
I324
sg10
I15
sg11
I4315
sg12
I609
sg13
g14
(g18
S'\x00\x00\x00\x00\x00\x004@'
p2457
tp2458
Rp2459
sa(dp2460
g8
I12
sg9
I349
sg10
I0
sg11
I3950
sg12
I610
sg13
g14
(g18
S'\x00\x00\x00\x00\x00\x00T@'
p2461
tp2462
Rp2463
sa(dp2464
g8
I12
sg9
I324
sg10
I3
sg11
I4601
sg12
I611
sg13
g14
(g18
S'\x00\x00\x00\x00\x00\x00"@'
p2465
tp2466
Rp2467
sa(dp2468
g8
I12
sg9
I305
sg10
I5
sg11
I4701
sg12
I612
sg13
g14
(g18
S'\x00\x00\x00\x00\x00\x00\x08@'
p2469
tp2470
Rp2471
sa(dp2472
g8
I12
sg9
I384
sg10
I7
sg11
I5064
sg12
I613
sg13
g14
(g18
S'\x00\x00\x00\x00\x00\x00&@'
p2473
tp2474
Rp2475
sa(dp2476
g8
I12
sg9
I397
sg10
I9
sg11
I2970
sg12
I614
sg13
g14
(g18
S'\x00\x00\x00\x00\x00\x00W@'
p2477
tp2478
Rp2479
sa(dp2480
g8
I12
sg9
I377
sg10
I10
sg11
I4871
sg12
I615
sg13
g14
(g18
S'\x00\x00\x00\x00\x00\x00\x18@'
p2481
tp2482
Rp2483
sa(dp2484
g8
I12
sg9
I385
sg10
I11
sg11
I5412
sg12
I616
sg13
g14
(g18
S'\x00\x00\x00\x00\x00\x80T@'
p2485
tp2486
Rp2487
sa(dp2488
g8
I12
sg9
I350
sg10
I12
sg11
I4075
sg12
I617
sg13
g14
(g18
S'\x00\x00\x00\x00\x00\x003@'
p2489
tp2490
Rp2491
sa(dp2492
g8
I12
sg9
I369
sg10
I13
sg11
I4470
sg12
I618
sg13
g14
(g18
S'\x00\x00\x00\x00\x00\x00$@'
p2493
tp2494
Rp2495
sa(dp2496
g8
I12
sg9
I301
sg10
I14
sg11
I4470
sg12
I619
sg13
g14
(g18
S'\x00\x00\x00\x00\x00\x002@'
p2497
tp2498
Rp2499
sa(dp2500
g8
I12
sg9
I318
sg10
I15
sg11
I3506
sg12
I620
sg13
g14
(g18
S'\x00\x00\x00\x00\x00\xc0R@'
p2501
tp2502
Rp2503
sa(dp2504
g8
I13
sg9
I334
sg10
I1
sg11
I4421
sg12
I621
sg13
g14
(g18
S'\x00\x00\x00\x00\x00\x00,@'
p2505
tp2506
Rp2507
sa(dp2508
g8
I13
sg9
I392
sg10
I2
sg11
I4223
sg12
I622
sg13
g14
(g18
S'\x00\x00\x00\x00\x00\x00,@'
p2509
tp2510
Rp2511
sa(dp2512
g8
I13
sg9
I386
sg10
I3
sg11
I4636
sg12
I623
sg13
g14
(g18
S'\x00\x00\x00\x00\x00\x00\x1c@'
p2513
tp2514
Rp2515
sa(dp2516
g8
I13
sg9
I347
sg10
I4
sg11
I5119
sg12
I624
sg13
g14
(g18
S'\x00\x00\x00\x00\x00\x00 @'
p2517
tp2518
Rp2519
sa(dp2520
g8
I13
sg9
I377
sg10
I5
sg11
I4096
sg12
I625
sg13
g14
(g18
S'\x00\x00\x00\x00\x00\x00?@'
p2521
tp2522
Rp2523
sa(dp2524
g8
I13
sg9
I388
sg10
I6
sg11
I4557
sg12
I626
sg13
g14
(g18
S'\x00\x00\x00\x00\x00\x00,@'
p2525
tp2526
Rp2527
sa(dp2528
g8
I13
sg9
I380
sg10
I8
sg11
I3236
sg12
I627
sg13
g14
(g18
S'\x00\x00\x00\x00\x00\x80b@'
p2529
tp2530
Rp2531
sa(dp2532
g8
I13
sg9
I302
sg10
I9
sg11
I3829
sg12
I628
sg13
g14
(g18
S'\x00\x00\x00\x00\x00\x00C@'
p2533
tp2534
Rp2535
sa(dp2536
g8
I13
sg9
I344
sg10
I10
sg11
I5047
sg12
I629
sg13
g14
(g18
S'\x00\x00\x00\x00\x00\x00*@'
p2537
tp2538
Rp2539
sa(dp2540
g8
I13
sg9
I388
sg10
I12
sg11
I4737
sg12
I630
sg13
g14
(g18
S'\x00\x00\x00\x00\x00\x00"@'
p2541
tp2542
Rp2543
sa(dp2544
g8
I13
sg9
I338
sg10
I14
sg11
I4959
sg12
I631
sg13
g14
(g18
S'\x00\x00\x00\x00\x00\x00(@'
p2545
tp2546
Rp2547
sa(dp2548
g8
I13
sg9
I326
sg10
I15
sg11
I4517
sg12
I632
sg13
g14
(g18
S'\x00\x00\x00\x00\x00\x00&@'
p2549
tp2550
Rp2551
sa(dp2552
g8
I14
sg9
I357
sg10
I0
sg11
I4646
sg12
I633
sg13
g14
(g18
S'\x00\x00\x00\x00\x00\x005@'
p2553
tp2554
Rp2555
sa(dp2556
g8
I14
sg9
I304
sg10
I1
sg11
I3512
sg12
I634
sg13
g14
(g18
S'\x00\x00\x00\x00\x00@R@'
p2557
tp2558
Rp2559
sa(dp2560
g8
I14
sg9
I399
sg10
I4
sg11
I4722
sg12
I635
sg13
g14
(g18
S'\x00\x00\x00\x00\x00\x00 @'
p2561
tp2562
Rp2563
sa(dp2564
g8
I14
sg9
I309
sg10
I5
sg11
I4526
sg12
I636
sg13
g14
(g18
S'\x00\x00\x00\x00\x00\x00"@'
p2565
tp2566
Rp2567
sa(dp2568
g8
I14
sg9
I357
sg10
I6
sg11
I4258
sg12
I637
sg13
g14
(g18
S'\x00\x00\x00\x00\x00\x00,@'
p2569
tp2570
Rp2571
sa(dp2572
g8
I14
sg9
I347
sg10
I9
sg11
I4146
sg12
I638
sg13
g14
(g18
S'\x00\x00\x00\x00\x00\x00B@'
p2573
tp2574
Rp2575
sa(dp2576
g8
I14
sg9
I331
sg10
I12
sg11
I3044
sg12
I639
sg13
g14
(g18
S'\x00\x00\x00\x00\x00\x80W@'
p2577
tp2578
Rp2579
sa(dp2580
g8
I14
sg9
I303
sg10
I13
sg11
I4630
sg12
I640
sg13
g14
(g18
S'\x00\x00\x00\x00\x00\x00&@'
p2581
tp2582
Rp2583
sa(dp2584
g8
I14
sg9
I383
sg10
I15
sg11
I3844
sg12
I641
sg13
g14
(g18
S'\x00\x00\x00\x00\x00\x00O@'
p2585
tp2586
Rp2587
sa(dp2588
g8
I15
sg9
I348
sg10
I0
sg11
I4601
sg12
I642
sg13
g14
(g18
S'\x00\x00\x00\x00\x00\x00.@'
p2589
tp2590
Rp2591
sa(dp2592
g8
I15
sg9
I379
sg10
I1
sg11
I2972
sg12
I643
sg13
g14
(g18
S'\x00\x00\x00\x00\x00\x00V@'
p2593
tp2594
Rp2595
sa(dp2596
g8
I15
sg9
I303
sg10
I3
sg11
I3776
sg12
I644
sg13
g14
(g18
S'\x00\x00\x00\x00\x00\x009@'
p2597
tp2598
Rp2599
sa(dp2600
g8
I15
sg9
I387
sg10
I6
sg11
I5257
sg12
I645
sg13
g14
(g18
S'\x00\x00\x00\x00\x00\x80A@'
p2601
tp2602
Rp2603
sa(dp2604
g8
I15
sg9
I368
sg10
I8
sg11
I4970
sg12
I646
sg13
g14
(g18
S'\x00\x00\x00\x00\x00\x00&@'
p2605
tp2606
Rp2607
sa(dp2608
g8
I15
sg9
I383
sg10
I9
sg11
I4460
sg12
I647
sg13
g14
(g18
S'\x00\x00\x00\x00\x00\x00&@'
p2609
tp2610
Rp2611
sa(dp2612
g8
I15
sg9
I320
sg10
I11
sg11
I3396
sg12
I648
sg13
g14
(g18
S'\x00\x00\x00\x00\x00\x00H@'
p2613
tp2614
Rp2615
sa(dp2616
g8
I15
sg9
I319
sg10
I13
sg11
I4436
sg12
I649
sg13
g14
(g18
S'\x00\x00\x00\x00\x00\x00,@'
p2617
tp2618
Rp2619
sa(dp2620
g8
I15
sg9
I374
sg10
I14
sg11
I4269
sg12
I650
sg13
g14
(g18
S'\x00\x00\x00\x00\x00\x005@'
p2621
tp2622
Rp2623
sa(dp2624
g8
I15
sg9
I380
sg10
I15
sg11
I4681
sg12
I651
sg13
g14
(g18
S'\x00\x00\x00\x00\x00\x80O@'
p2625
tp2626
Rp2627
sa(dp2628
g8
I0
sg9
I426
sg10
I0
sg11
I4063
sg12
I652
sg13
g14
(g18
S'\x00\x00\x00\x00\x00\x80\\@'
p2629
tp2630
Rp2631
sa(dp2632
g8
I0
sg9
I444
sg10
I2
sg11
I4685
sg12
I653
sg13
g14
(g18
S'\x00\x00\x00\x00\x00\x00 @'
p2633
tp2634
Rp2635
sa(dp2636
g8
I0
sg9
I479
sg10
I3
sg11
I4150
sg12
I654
sg13
g14
(g18
S'\x00\x00\x00\x00\x00\x00,@'
p2637
tp2638
Rp2639
sa(dp2640
g8
I0
sg9
I467
sg10
I6
sg11
I3857
sg12
I655
sg13
g14
(g18
S'\x00\x00\x00\x00\x00@Q@'
p2641
tp2642
Rp2643
sa(dp2644
g8
I0
sg9
I450
sg10
I8
sg11
I4614
sg12
I656
sg13
g14
(g18
S'\x00\x00\x00\x00\x00\x00,@'
p2645
tp2646
Rp2647
sa(dp2648
g8
I0
sg9
I401
sg10
I9
sg11
I4563
sg12
I657
sg13
g14
(g18
S'\x00\x00\x00\x00\x00\x00.@'
p2649
tp2650
Rp2651
sa(dp2652
g8
I0
sg9
I426
sg10
I12
sg11
I4438
sg12
I658
sg13
g14
(g18
S'\x00\x00\x00\x00\x00\x00*@'
p2653
tp2654
Rp2655
sa(dp2656
g8
I0
sg9
I411
sg10
I15
sg11
I4363
sg12
I659
sg13
g14
(g18
S'\x00\x00\x00\x00\x00\xc0\\@'
p2657
tp2658
Rp2659
sa(dp2660
g8
I1
sg9
I437
sg10
I0
sg11
I4192
sg12
I660
sg13
g14
(g18
S'\x00\x00\x00\x00\x00\x00,@'
p2661
tp2662
Rp2663
sa(dp2664
g8
I1
sg9
I416
sg10
I1
sg11
I4118
sg12
I661
sg13
g14
(g18
S'\x00\x00\x00\x00\x00\x80B@'
p2665
tp2666
Rp2667
sa(dp2668
g8
I1
sg9
I445
sg10
I2
sg11
I4749
sg12
I662
sg13
g14
(g18
S'\x00\x00\x00\x00\x00\x00\x1c@'
p2669
tp2670
Rp2671
sa(dp2672
g8
I1
sg9
I478
sg10
I3
sg11
I4386
sg12
I663
sg13
g14
(g18
S'\x00\x00\x00\x00\x00\x00*@'
p2673
tp2674
Rp2675
sa(dp2676
g8
I1
sg9
I453
sg10
I4
sg11
I4581
sg12
I664
sg13
g14
(g18
S'\x00\x00\x00\x00\x00\x00 @'
p2677
tp2678
Rp2679
sa(dp2680
g8
I1
sg9
I411
sg10
I5
sg11
I4343
sg12
I665
sg13
g14
(g18
S'\x00\x00\x00\x00\x00@X@'
p2681
tp2682
Rp2683
sa(dp2684
g8
I1
sg9
I413
sg10
I8
sg11
I4996
sg12
I666
sg13
g14
(g18
S'\x00\x00\x00\x00\x00\x00\x18@'
p2685
tp2686
Rp2687
sa(dp2688
g8
I1
sg9
I497
sg10
I10
sg11
I4812
sg12
I667
sg13
g14
(g18
S'\x00\x00\x00\x00\x00\x00\x08@'
p2689
tp2690
Rp2691
sa(dp2692
g8
I1
sg9
I480
sg10
I11
sg11
I2969
sg12
I668
sg13
g14
(g18
S'\x00\x00\x00\x00\x00\x80V@'
p2693
tp2694
Rp2695
sa(dp2696
g8
I1
sg9
I475
sg10
I12
sg11
I4769
sg12
I669
sg13
g14
(g18
S'\x00\x00\x00\x00\x00\x00\x10@'
p2697
tp2698
Rp2699
sa(dp2700
g8
I1
sg9
I477
sg10
I13
sg11
I3762
sg12
I670
sg13
g14
(g18
S'\x00\x00\x00\x00\x00\x00J@'
p2701
tp2702
Rp2703
sa(dp2704
g8
I1
sg9
I472
sg10
I15
sg11
I4642
sg12
I671
sg13
g14
(g18
S'\x00\x00\x00\x00\x00\x005@'
p2705
tp2706
Rp2707
sa(dp2708
g8
I2
sg9
I484
sg10
I1
sg11
I4750
sg12
I672
sg13
g14
(g18
S'\x00\x00\x00\x00\x00\x003@'
p2709
tp2710
Rp2711
sa(dp2712
g8
I2
sg9
I405
sg10
I2
sg11
I4544
sg12
I673
sg13
g14
(g18
S'\x00\x00\x00\x00\x00\x00(@'
p2713
tp2714
Rp2715
sa(dp2716
g8
I2
sg9
I406
sg10
I3
sg11
I4023
sg12
I674
sg13
g14
(g18
S'\x00\x00\x00\x00\x00\x000@'
p2717
tp2718
Rp2719
sa(dp2720
g8
I2
sg9
I447
sg10
I6
sg11
I3297
sg12
I675
sg13
g14
(g18
S'\x00\x00\x00\x00\x00\x00b@'
p2721
tp2722
Rp2723
sa(dp2724
g8
I2
sg9
I404
sg10
I7
sg11
I4630
sg12
I676
sg13
g14
(g18
S'\x00\x00\x00\x00\x00\x00 @'
p2725
tp2726
Rp2727
sa(dp2728
g8
I2
sg9
I425
sg10
I9
sg11
I4324
sg12
I677
sg13
g14
(g18
S'\x00\x00\x00\x00\x00\x00$@'
p2729
tp2730
Rp2731
sa(dp2732
g8
I2
sg9
I416
sg10
I10
sg11
I4428
sg12
I678
sg13
g14
(g18
S'\x00\x00\x00\x00\x00\x00"@'
p2733
tp2734
Rp2735
sa(dp2736
g8
I2
sg9
I460
sg10
I12
sg11
I4189
sg12
I679
sg13
g14
(g18
S'\x00\x00\x00\x00\x00\x002@'
p2737
tp2738
Rp2739
sa(dp2740
g8
I2
sg9
I499
sg10
I14
sg11
I3625
sg12
I680
sg13
g14
(g18
S'\x00\x00\x00\x00\x00\x00=@'
p2741
tp2742
Rp2743
sa(dp2744
g8
I2
sg9
I470
sg10
I15
sg11
I4884
sg12
I681
sg13
g14
(g18
S'\x00\x00\x00\x00\x00\x00(@'
p2745
tp2746
Rp2747
sa(dp2748
g8
I3
sg9
I428
sg10
I0
sg11
I4841
sg12
I682
sg13
g14
(g18
S'\x00\x00\x00\x00\x00\x006@'
p2749
tp2750
Rp2751
sa(dp2752
g8
I3
sg9
I432
sg10
I1
sg11
I4197
sg12
I683
sg13
g14
(g18
S'\x00\x00\x00\x00\x00\x00,@'
p2753
tp2754
Rp2755
sa(dp2756
g8
I3
sg9
I409
sg10
I2
sg11
I3545
sg12
I684
sg13
g14
(g18
S'\x00\x00\x00\x00\x00@g@'
p2757
tp2758
Rp2759
sa(dp2760
g8
I3
sg9
I475
sg10
I6
sg11
I4854
sg12
I685
sg13
g14
(g18
S'\x00\x00\x00\x00\x00\x00\x1c@'
p2761
tp2762
Rp2763
sa(dp2764
g8
I3
sg9
I433
sg10
I7
sg11
I4666
sg12
I686
sg13
g14
(g18
S'\x00\x00\x00\x00\x00\x00\x00@'
p2765
tp2766
Rp2767
sa(dp2768
g8
I3
sg9
I498
sg10
I8
sg11
I4276
sg12
I687
sg13
g14
(g18
S'\x00\x00\x00\x00\x00\x00.@'
p2769
tp2770
Rp2771
sa(dp2772
g8
I3
sg9
I452
sg10
I9
sg11
I4712
sg12
I688
sg13
g14
(g18
S'\x00\x00\x00\x00\x00\x00\xf0?'
p2773
tp2774
Rp2775
sa(dp2776
g8
I3
sg9
I473
sg10
I10
sg11
I4451
sg12
I689
sg13
g14
(g18
S'\x00\x00\x00\x00\x00\x00\x1c@'
p2777
tp2778
Rp2779
sa(dp2780
g8
I3
sg9
I402
sg10
I11
sg11
I4622
sg12
I690
sg13
g14
(g18
S'\x00\x00\x00\x00\x00\x00\x18@'
p2781
tp2782
Rp2783
sa(dp2784
g8
I3
sg9
I446
sg10
I12
sg11
I3768
sg12
I691
sg13
g14
(g18
S'\x00\x00\x00\x00\x00\x80G@'
p2785
tp2786
Rp2787
sa(dp2788
g8
I3
sg9
I437
sg10
I13
sg11
I3997
sg12
I692
sg13
g14
(g18
S'\x00\x00\x00\x00\x00\x001@'
p2789
tp2790
Rp2791
sa(dp2792
g8
I4
sg9
I466
sg10
I1
sg11
I4588
sg12
I693
sg13
g14
(g18
S'\x00\x00\x00\x00\x00\x00(@'
p2793
tp2794
Rp2795
sa(dp2796
g8
I4
sg9
I498
sg10
I2
sg11
I4821
sg12
I694
sg13
g14
(g18
S'\x00\x00\x00\x00\x00\x00\x14@'
p2797
tp2798
Rp2799
sa(dp2800
g8
I4
sg9
I464
sg10
I4
sg11
I4805
sg12
I695
sg13
g14
(g18
S'\x00\x00\x00\x00\x00\xe0a@'
p2801
tp2802
Rp2803
sa(dp2804
g8
I4
sg9
I448
sg10
I5
sg11
I4651
sg12
I696
sg13
g14
(g18
S'\x00\x00\x00\x00\x00\x00\x00@'
p2805
tp2806
Rp2807
sa(dp2808
g8
I4
sg9
I432
sg10
I7
sg11
I4757
sg12
I697
sg13
g14
(g18
S'\x00\x00\x00\x00\x00\x00\x18@'
p2809
tp2810
Rp2811
sa(dp2812
g8
I4
sg9
I424
sg10
I9
sg11
I4250
sg12
I698
sg13
g14
(g18
S'\x00\x00\x00\x00\x00@[@'
p2813
tp2814
Rp2815
sa(dp2816
g8
I4
sg9
I463
sg10
I11
sg11
I4466
sg12
I699
sg13
g14
(g18
S'\x00\x00\x00\x00\x00\x00 @'
p2817
tp2818
Rp2819
sa(dp2820
g8
I4
sg9
I419
sg10
I13
sg11
I2965
sg12
I700
sg13
g14
(g18
S'\x00\x00\x00\x00\x00@S@'
p2821
tp2822
Rp2823
sa(dp2824
g8
I4
sg9
I424
sg10
I15
sg11
I4960
sg12
I701
sg13
g14
(g18
S'\x00\x00\x00\x00\x00\x00\xf0?'
p2825
tp2826
Rp2827
sa(dp2828
g8
I5
sg9
I496
sg10
I0
sg11
I4638
sg12
I702
sg13
g14
(g18
S'\x00\x00\x00\x00\x00\x00"@'
p2829
tp2830
Rp2831
sa(dp2832
g8
I5
sg9
I449
sg10
I2
sg11
I4325
sg12
I703
sg13
g14
(g18
S'\x00\x00\x00\x00\x00\x00.@'
p2833
tp2834
Rp2835
sa(dp2836
g8
I5
sg9
I422
sg10
I4
sg11
I5127
sg12
I704
sg13
g14
(g18
S'\x00\x00\x00\x00\x00\x00:@'
p2837
tp2838
Rp2839
sa(dp2840
g8
I5
sg9
I461
sg10
I6
sg11
I4553
sg12
I705
sg13
g14
(g18
S'\x00\x00\x00\x00\x00\x00\x10@'
p2841
tp2842
Rp2843
sa(dp2844
g8
I5
sg9
I462
sg10
I7
sg11
I4802
sg12
I706
sg13
g14
(g18
S'\x00\x00\x00\x00\x00@X@'
p2845
tp2846
Rp2847
sa(dp2848
g8
I5
sg9
I475
sg10
I8
sg11
I5169
sg12
I707
sg13
g14
(g18
S'\x00\x00\x00\x00\x00\x006@'
p2849
tp2850
Rp2851
sa(dp2852
g8
I5
sg9
I496
sg10
I10
sg11
I2898
sg12
I708
sg13
g14
(g18
S'\x00\x00\x00\x00\x00\xc0S@'
p2853
tp2854
Rp2855
sa(dp2856
g8
I5
sg9
I440
sg10
I11
sg11
I3679
sg12
I709
sg13
g14
(g18
S'\x00\x00\x00\x00\x00\x00<@'
p2857
tp2858
Rp2859
sa(dp2860
g8
I5
sg9
I404
sg10
I12
sg11
I3350
sg12
I710
sg13
g14
(g18
S'\x00\x00\x00\x00\x00\x00G@'
p2861
tp2862
Rp2863
sa(dp2864
g8
I6
sg9
I468
sg10
I1
sg11
I4481
sg12
I711
sg13
g14
(g18
S'\x00\x00\x00\x00\x00\x00(@'
p2865
tp2866
Rp2867
sa(dp2868
g8
I6
sg9
I468
sg10
I2
sg11
I4576
sg12
I712
sg13
g14
(g18
S'\x00\x00\x00\x00\x00\x00$@'
p2869
tp2870
Rp2871
sa(dp2872
g8
I6
sg9
I473
sg10
I3
sg11
I3001
sg12
I713
sg13
g14
(g18
S'\x00\x00\x00\x00\x00\xc0W@'
p2873
tp2874
Rp2875
sa(dp2876
g8
I6
sg9
I421
sg10
I5
sg11
I4748
sg12
I714
sg13
g14
(g18
S'\x00\x00\x00\x00\x00\x00\x00@'
p2877
tp2878
Rp2879
sa(dp2880
g8
I6
sg9
I452
sg10
I7
sg11
I3637
sg12
I715
sg13
g14
(g18
S'\x00\x00\x00\x00\x00\x006@'
p2881
tp2882
Rp2883
sa(dp2884
g8
I6
sg9
I457
sg10
I9
sg11
I4927
sg12
I716
sg13
g14
(g18
S'\x00\x00\x00\x00\x00\x00\xf0?'
p2885
tp2886
Rp2887
sa(dp2888
g8
I6
sg9
I447
sg10
I11
sg11
I4872
sg12
I717
sg13
g14
(g18
S'\x00\x00\x00\x00\x00\x00V@'
p2889
tp2890
Rp2891
sa(dp2892
g8
I6
sg9
I434
sg10
I13
sg11
I4210
sg12
I718
sg13
g14
(g18
S'\x00\x00\x00\x00\x00\x001@'
p2893
tp2894
Rp2895
sa(dp2896
g8
I6
sg9
I471
sg10
I14
sg11
I3463
sg12
I719
sg13
g14
(g18
S'\x00\x00\x00\x00\x00\x80T@'
p2897
tp2898
Rp2899
sa(dp2900
g8
I7
sg9
I421
sg10
I0
sg11
I2943
sg12
I720
sg13
g14
(g18
S'\x00\x00\x00\x00\x00@R@'
p2901
tp2902
Rp2903
sa(dp2904
g8
I7
sg9
I486
sg10
I2
sg11
I5468
sg12
I721
sg13
g14
(g18
S'\x00\x00\x00\x00\x00\x00$@'
p2905
tp2906
Rp2907
sa(dp2908
g8
I7
sg9
I426
sg10
I3
sg11
I4323
sg12
I722
sg13
g14
(g18
S'\x00\x00\x00\x00\x00\x00$@'
p2909
tp2910
Rp2911
sa(dp2912
g8
I7
sg9
I420
sg10
I4
sg11
I3334
sg12
I723
sg13
g14
(g18
S'\x00\x00\x00\x00\x00\x00G@'
p2913
tp2914
Rp2915
sa(dp2916
g8
I7
sg9
I435
sg10
I5
sg11
I5559
sg12
I724
sg13
g14
(g18
S'\x00\x00\x00\x00\x00\x00:@'
p2917
tp2918
Rp2919
sa(dp2920
g8
I7
sg9
I496
sg10
I7
sg11
I5188
sg12
I725
sg13
g14
(g18
S'\x00\x00\x00\x00\x00\x008@'
p2921
tp2922
Rp2923
sa(dp2924
g8
I7
sg9
I407
sg10
I8
sg11
I5382
sg12
I726
sg13
g14
(g18
S'\x00\x00\x00\x00\x00\x00.@'
p2925
tp2926
Rp2927
sa(dp2928
g8
I7
sg9
I456
sg10
I9
sg11
I4788
sg12
I727
sg13
g14
(g18
S'\x00\x00\x00\x00\x00\x00*@'
p2929
tp2930
Rp2931
sa(dp2932
g8
I7
sg9
I479
sg10
I10
sg11
I5120
sg12
I728
sg13
g14
(g18
S'\x00\x00\x00\x00\x00@Y@'
p2933
tp2934
Rp2935
sa(dp2936
g8
I7
sg9
I426
sg10
I12
sg11
I4773
sg12
I729
sg13
g14
(g18
S'\x00\x00\x00\x00\x00\x00 @'
p2937
tp2938
Rp2939
sa(dp2940
g8
I7
sg9
I446
sg10
I14
sg11
I5038
sg12
I730
sg13
g14
(g18
S'\x00\x00\x00\x00\x00\x80T@'
p2941
tp2942
Rp2943
sa(dp2944
g8
I8
sg9
I403
sg10
I4
sg11
I3096
sg12
I731
sg13
g14
(g18
S'\x00\x00\x00\x00\x00\x00Y@'
p2945
tp2946
Rp2947
sa(dp2948
g8
I8
sg9
I497
sg10
I5
sg11
I3807
sg12
I732
sg13
g14
(g18
S'\x00\x00\x00\x00\x00@P@'
p2949
tp2950
Rp2951
sa(dp2952
g8
I8
sg9
I498
sg10
I6
sg11
I4271
sg12
I733
sg13
g14
(g18
S'\x00\x00\x00\x00\x00\x00,@'
p2953
tp2954
Rp2955
sa(dp2956
g8
I8
sg9
I403
sg10
I7
sg11
I3411
sg12
I734
sg13
g14
(g18
S'\x00\x00\x00\x00\x00\x00M@'
p2957
tp2958
Rp2959
sa(dp2960
g8
I8
sg9
I441
sg10
I8
sg11
I4528
sg12
I735
sg13
g14
(g18
S'\x00\x00\x00\x00\x00@V@'
p2961
tp2962
Rp2963
sa(dp2964
g8
I8
sg9
I441
sg10
I9
sg11
I4568
sg12
I736
sg13
g14
(g18
S'\x00\x00\x00\x00\x00\x00\x08@'
p2965
tp2966
Rp2967
sa(dp2968
g8
I8
sg9
I412
sg10
I10
sg11
I4712
sg12
I737
sg13
g14
(g18
S'\x00\x00\x00\x00\x00\x00\x1c@'
p2969
tp2970
Rp2971
sa(dp2972
g8
I8
sg9
I477
sg10
I14
sg11
I4687
sg12
I738
sg13
g14
(g18
S'\x00\x00\x00\x00\x00\x00\xf0?'
p2973
tp2974
Rp2975
sa(dp2976
g8
I9
sg9
I414
sg10
I1
sg11
I4430
sg12
I739
sg13
g14
(g18
S'\x00\x00\x00\x00\x00\x00"@'
p2977
tp2978
Rp2979
sa(dp2980
g8
I9
sg9
I490
sg10
I2
sg11
I5149
sg12
I740
sg13
g14
(g18
S'\x00\x00\x00\x00\x00\x00\x08@'
p2981
tp2982
Rp2983
sa(dp2984
g8
I9
sg9
I434
sg10
I4
sg11
I4225
sg12
I741
sg13
g14
(g18
S'\x00\x00\x00\x00\x00\x004@'
p2985
tp2986
Rp2987
sa(dp2988
g8
I9
sg9
I434
sg10
I5
sg11
I4490
sg12
I742
sg13
g14
(g18
S'\x00\x00\x00\x00\x00\x00\x1c@'
p2989
tp2990
Rp2991
sa(dp2992
g8
I9
sg9
I489
sg10
I6
sg11
I4970
sg12
I743
sg13
g14
(g18
S'\x00\x00\x00\x00\x00\x00Q@'
p2993
tp2994
Rp2995
sa(dp2996
g8
I9
sg9
I451
sg10
I7
sg11
I4313
sg12
I744
sg13
g14
(g18
S'\x00\x00\x00\x00\x00\x00*@'
p2997
tp2998
Rp2999
sa(dp3000
g8
I9
sg9
I442
sg10
I8
sg11
I3827
sg12
I745
sg13
g14
(g18
S'\x00\x00\x00\x00\x00\x00M@'
p3001
tp3002
Rp3003
sa(dp3004
g8
I9
sg9
I466
sg10
I9
sg11
I4833
sg12
I746
sg13
g14
(g18
S'\x00\x00\x00\x00\x00\x00\xf0?'
p3005
tp3006
Rp3007
sa(dp3008
g8
I9
sg9
I447
sg10
I10
sg11
I3437
sg12
I747
sg13
g14
(g18
S'\x00\x00\x00\x00\x00\x00R@'
p3009
tp3010
Rp3011
sa(dp3012
g8
I9
sg9
I447
sg10
I11
sg11
I4957
sg12
I748
sg13
g14
(g18
S'\x00\x00\x00\x00\x00\x00\x14@'
p3013
tp3014
Rp3015
sa(dp3016
g8
I9
sg9
I450
sg10
I13
sg11
I4589
sg12
I749
sg13
g14
(g18
S'\x00\x00\x00\x00\x00\x00"@'
p3017
tp3018
Rp3019
sa(dp3020
g8
I9
sg9
I434
sg10
I14
sg11
I2975
sg12
I750
sg13
g14
(g18
S'\x00\x00\x00\x00\x00\x80T@'
p3021
tp3022
Rp3023
sa(dp3024
g8
I10
sg9
I406
sg10
I1
sg11
I3678
sg12
I751
sg13
g14
(g18
S'\x00\x00\x00\x00\x00\x005@'
p3025
tp3026
Rp3027
sa(dp3028
g8
I10
sg9
I459
sg10
I2
sg11
I5140
sg12
I752
sg13
g14
(g18
S'\x00\x00\x00\x00\x00@W@'
p3029
tp3030
Rp3031
sa(dp3032
g8
I10
sg9
I405
sg10
I4
sg11
I4759
sg12
I753
sg13
g14
(g18
S'\x00\x00\x00\x00\x00\x00\xf0?'
p3033
tp3034
Rp3035
sa(dp3036
g8
I10
sg9
I466
sg10
I7
sg11
I2818
sg12
I754
sg13
g14
(g18
S'\x00\x00\x00\x00\x00\x80L@'
p3037
tp3038
Rp3039
sa(dp3040
g8
I10
sg9
I402
sg10
I8
sg11
I4707
sg12
I755
sg13
g14
(g18
S'\x00\x00\x00\x00\x00\x00\x10@'
p3041
tp3042
Rp3043
sa(dp3044
g8
I10
sg9
I412
sg10
I10
sg11
I4232
sg12
I756
sg13
g14
(g18
S'\x00\x00\x00\x00\x00\x001@'
p3045
tp3046
Rp3047
sa(dp3048
g8
I10
sg9
I449
sg10
I11
sg11
I5240
sg12
I757
sg13
g14
(g18
S'\x00\x00\x00\x00\x00\x00*@'
p3049
tp3050
Rp3051
sa(dp3052
g8
I10
sg9
I449
sg10
I12
sg11
I4475
sg12
I758
sg13
g14
(g18
S'\x00\x00\x00\x00\x00\x006@'
p3053
tp3054
Rp3055
sa(dp3056
g8
I10
sg9
I457
sg10
I13
sg11
I3287
sg12
I759
sg13
g14
(g18
S'\x00\x00\x00\x00\x00\x00F@'
p3057
tp3058
Rp3059
sa(dp3060
g8
I10
sg9
I486
sg10
I14
sg11
I4528
sg12
I760
sg13
g14
(g18
S'\x00\x00\x00\x00\x00\x00\x10@'
p3061
tp3062
Rp3063
sa(dp3064
g8
I11
sg9
I492
sg10
I0
sg11
I4692
sg12
I761
sg13
g14
(g18
S'\x00\x00\x00\x00\x00\x00\x14@'
p3065
tp3066
Rp3067
sa(dp3068
g8
I11
sg9
I454
sg10
I2
sg11
I3850
sg12
I762
sg13
g14
(g18
S'\x00\x00\x00\x00\x00@P@'
p3069
tp3070
Rp3071
sa(dp3072
g8
I11
sg9
I439
sg10
I3
sg11
I3270
sg12
I763
sg13
g14
(g18
S'\x00\x00\x00\x00\x00\x80B@'
p3073
tp3074
Rp3075
sa(dp3076
g8
I11
sg9
I466
sg10
I4
sg11
I4488
sg12
I764
sg13
g14
(g18
S'\x00\x00\x00\x00\x00\x00*@'
p3077
tp3078
Rp3079
sa(dp3080
g8
I11
sg9
I427
sg10
I5
sg11
I2937
sg12
I765
sg13
g14
(g18
S'\x00\x00\x00\x00\x00@R@'
p3081
tp3082
Rp3083
sa(dp3084
g8
I11
sg9
I450
sg10
I6
sg11
I4414
sg12
I766
sg13
g14
(g18
S'\x00\x00\x00\x00\x00\x00*@'
p3085
tp3086
Rp3087
sa(dp3088
g8
I11
sg9
I419
sg10
I8
sg11
I4840
sg12
I767
sg13
g14
(g18
S'\x00\x00\x00\x00\x00\x00\x1c@'
p3089
tp3090
Rp3091
sa(dp3092
g8
I11
sg9
I472
sg10
I10
sg11
I4302
sg12
I768
sg13
g14
(g18
S'\x00\x00\x00\x00\x00\x00J@'
p3093
tp3094
Rp3095
sa(dp3096
g8
I11
sg9
I413
sg10
I11
sg11
I5071
sg12
I769
sg13
g14
(g18
S'\x00\x00\x00\x00\x00\x00$@'
p3097
tp3098
Rp3099
sa(dp3100
g8
I11
sg9
I461
sg10
I12
sg11
I4603
sg12
I770
sg13
g14
(g18
S'\x00\x00\x00\x00\x00\x00,@'
p3101
tp3102
Rp3103
sa(dp3104
g8
I11
sg9
I433
sg10
I13
sg11
I4676
sg12
I771
sg13
g14
(g18
S'\x00\x00\x00\x00\x00\x00\x10@'
p3105
tp3106
Rp3107
sa(dp3108
g8
I11
sg9
I424
sg10
I15
sg11
I4235
sg12
I772
sg13
g14
(g18
S'\x00\x00\x00\x00\x00\x004@'
p3109
tp3110
Rp3111
sa(dp3112
g8
I12
sg9
I449
sg10
I0
sg11
I4900
sg12
I773
sg13
g14
(g18
S'\x00\x00\x00\x00\x00\x00T@'
p3113
tp3114
Rp3115
sa(dp3116
g8
I12
sg9
I424
sg10
I3
sg11
I4510
sg12
I774
sg13
g14
(g18
S'\x00\x00\x00\x00\x00\x00"@'
p3117
tp3118
Rp3119
sa(dp3120
g8
I12
sg9
I405
sg10
I5
sg11
I4604
sg12
I775
sg13
g14
(g18
S'\x00\x00\x00\x00\x00\x00\x08@'
p3121
tp3122
Rp3123
sa(dp3124
g8
I12
sg9
I484
sg10
I7
sg11
I4975
sg12
I776
sg13
g14
(g18
S'\x00\x00\x00\x00\x00\x00&@'
p3125
tp3126
Rp3127
sa(dp3128
g8
I12
sg9
I497
sg10
I9
sg11
I2962
sg12
I777
sg13
g14
(g18
S'\x00\x00\x00\x00\x00\x00W@'
p3129
tp3130
Rp3131
sa(dp3132
g8
I12
sg9
I477
sg10
I10
sg11
I4777
sg12
I778
sg13
g14
(g18
S'\x00\x00\x00\x00\x00\x00\x18@'
p3133
tp3134
Rp3135
sa(dp3136
g8
I12
sg9
I485
sg10
I11
sg11
I5394
sg12
I779
sg13
g14
(g18
S'\x00\x00\x00\x00\x00\x80T@'
p3137
tp3138
Rp3139
sa(dp3140
g8
I12
sg9
I450
sg10
I12
sg11
I3994
sg12
I780
sg13
g14
(g18
S'\x00\x00\x00\x00\x00\x003@'
p3141
tp3142
Rp3143
sa(dp3144
g8
I12
sg9
I469
sg10
I13
sg11
I4380
sg12
I781
sg13
g14
(g18
S'\x00\x00\x00\x00\x00\x00$@'
p3145
tp3146
Rp3147
sa(dp3148
g8
I12
sg9
I401
sg10
I14
sg11
I4703
sg12
I782
sg13
g14
(g18
S'\x00\x00\x00\x00\x00\x002@'
p3149
tp3150
Rp3151
sa(dp3152
g8
I12
sg9
I418
sg10
I15
sg11
I3481
sg12
I783
sg13
g14
(g18
S'\x00\x00\x00\x00\x00\xc0R@'
p3153
tp3154
Rp3155
sa(dp3156
g8
I13
sg9
I434
sg10
I1
sg11
I4335
sg12
I784
sg13
g14
(g18
S'\x00\x00\x00\x00\x00\x00,@'
p3157
tp3158
Rp3159
sa(dp3160
g8
I13
sg9
I492
sg10
I2
sg11
I4137
sg12
I785
sg13
g14
(g18
S'\x00\x00\x00\x00\x00\x00,@'
p3161
tp3162
Rp3163
sa(dp3164
g8
I13
sg9
I486
sg10
I3
sg11
I4543
sg12
I786
sg13
g14
(g18
S'\x00\x00\x00\x00\x00\x00\x1c@'
p3165
tp3166
Rp3167
sa(dp3168
g8
I13
sg9
I447
sg10
I4
sg11
I5027
sg12
I787
sg13
g14
(g18
S'\x00\x00\x00\x00\x00\x00 @'
p3169
tp3170
Rp3171
sa(dp3172
g8
I13
sg9
I477
sg10
I5
sg11
I4027
sg12
I788
sg13
g14
(g18
S'\x00\x00\x00\x00\x00\x00?@'
p3173
tp3174
Rp3175
sa(dp3176
g8
I13
sg9
I488
sg10
I6
sg11
I4471
sg12
I789
sg13
g14
(g18
S'\x00\x00\x00\x00\x00\x00,@'
p3177
tp3178
Rp3179
sa(dp3180
g8
I13
sg9
I480
sg10
I8
sg11
I3284
sg12
I790
sg13
g14
(g18
S'\x00\x00\x00\x00\x00\x80b@'
p3181
tp3182
Rp3183
sa(dp3184
g8
I13
sg9
I402
sg10
I9
sg11
I3767
sg12
I791
sg13
g14
(g18
S'\x00\x00\x00\x00\x00\x00C@'
p3185
tp3186
Rp3187
sa(dp3188
g8
I13
sg9
I444
sg10
I10
sg11
I4960
sg12
I792
sg13
g14
(g18
S'\x00\x00\x00\x00\x00\x00*@'
p3189
tp3190
Rp3191
sa(dp3192
g8
I13
sg9
I488
sg10
I12
sg11
I4646
sg12
I793
sg13
g14
(g18
S'\x00\x00\x00\x00\x00\x00"@'
p3193
tp3194
Rp3195
sa(dp3196
g8
I13
sg9
I438
sg10
I14
sg11
I4871
sg12
I794
sg13
g14
(g18
S'\x00\x00\x00\x00\x00\x00(@'
p3197
tp3198
Rp3199
sa(dp3200
g8
I13
sg9
I426
sg10
I15
sg11
I4428
sg12
I795
sg13
g14
(g18
S'\x00\x00\x00\x00\x00\x00&@'
p3201
tp3202
Rp3203
sa(dp3204
g8
I14
sg9
I457
sg10
I0
sg11
I4567
sg12
I796
sg13
g14
(g18
S'\x00\x00\x00\x00\x00\x005@'
p3205
tp3206
Rp3207
sa(dp3208
g8
I14
sg9
I404
sg10
I1
sg11
I3485
sg12
I797
sg13
g14
(g18
S'\x00\x00\x00\x00\x00@R@'
p3209
tp3210
Rp3211
sa(dp3212
g8
I14
sg9
I499
sg10
I4
sg11
I4630
sg12
I798
sg13
g14
(g18
S'\x00\x00\x00\x00\x00\x00 @'
p3213
tp3214
Rp3215
sa(dp3216
g8
I14
sg9
I409
sg10
I5
sg11
I4435
sg12
I799
sg13
g14
(g18
S'\x00\x00\x00\x00\x00\x00"@'
p3217
tp3218
Rp3219
sa(dp3220
g8
I14
sg9
I457
sg10
I6
sg11
I4172
sg12
I800
sg13
g14
(g18
S'\x00\x00\x00\x00\x00\x00,@'
p3221
tp3222
Rp3223
sa(dp3224
g8
I14
sg9
I447
sg10
I9
sg11
I4082
sg12
I801
sg13
g14
(g18
S'\x00\x00\x00\x00\x00\x00B@'
p3225
tp3226
Rp3227
sa(dp3228
g8
I14
sg9
I431
sg10
I12
sg11
I3038
sg12
I802
sg13
g14
(g18
S'\x00\x00\x00\x00\x00\x80W@'
p3229
tp3230
Rp3231
sa(dp3232
g8
I14
sg9
I403
sg10
I13
sg11
I4541
sg12
I803
sg13
g14
(g18
S'\x00\x00\x00\x00\x00\x00&@'
p3233
tp3234
Rp3235
sa(dp3236
g8
I14
sg9
I483
sg10
I15
sg11
I3806
sg12
I804
sg13
g14
(g18
S'\x00\x00\x00\x00\x00\x00O@'
p3237
tp3238
Rp3239
sa(dp3240
g8
I15
sg9
I448
sg10
I0
sg11
I4516
sg12
I805
sg13
g14
(g18
S'\x00\x00\x00\x00\x00\x00.@'
p3241
tp3242
Rp3243
sa(dp3244
g8
I15
sg9
I479
sg10
I1
sg11
I2960
sg12
I806
sg13
g14
(g18
S'\x00\x00\x00\x00\x00\x00V@'
p3245
tp3246
Rp3247
sa(dp3248
g8
I15
sg9
I403
sg10
I3
sg11
I3701
sg12
I807
sg13
g14
(g18
S'\x00\x00\x00\x00\x00\x009@'
p3249
tp3250
Rp3251
sa(dp3252
g8
I15
sg9
I487
sg10
I6
sg11
I5192
sg12
I808
sg13
g14
(g18
S'\x00\x00\x00\x00\x00\x80A@'
p3253
tp3254
Rp3255
sa(dp3256
g8
I15
sg9
I468
sg10
I8
sg11
I4881
sg12
I809
sg13
g14
(g18
S'\x00\x00\x00\x00\x00\x00&@'
p3257
tp3258
Rp3259
sa(dp3260
g8
I15
sg9
I483
sg10
I9
sg11
I4371
sg12
I810
sg13
g14
(g18
S'\x00\x00\x00\x00\x00\x00&@'
p3261
tp3262
Rp3263
sa(dp3264
g8
I15
sg9
I420
sg10
I11
sg11
I3344
sg12
I811
sg13
g14
(g18
S'\x00\x00\x00\x00\x00\x00H@'
p3265
tp3266
Rp3267
sa(dp3268
g8
I15
sg9
I419
sg10
I13
sg11
I4350
sg12
I812
sg13
g14
(g18
S'\x00\x00\x00\x00\x00\x00,@'
p3269
tp3270
Rp3271
sa(dp3272
g8
I15
sg9
I474
sg10
I14
sg11
I4190
sg12
I813
sg13
g14
(g18
S'\x00\x00\x00\x00\x00\x005@'
p3273
tp3274
Rp3275
sa(dp3276
g8
I15
sg9
I480
sg10
I15
sg11
I4764
sg12
I814
sg13
g14
(g18
S'\x00\x00\x00\x00\x00\x80O@'
p3277
tp3278
Rp3279
sassS'NN'
p3280
(dp3281
g4
I509
sg5
(lp3282
(dp3283
g8
I0
sg9
I26
sg10
I0
sg11
I1865
sg12
I0
sg13
g23
sa(dp3284
g8
I0
sg9
I44
sg10
I2
sg11
I2744
sg12
I1
sg13
g27
sa(dp3285
g8
I0
sg9
I79
sg10
I3
sg11
I4741
sg12
I2
sg13
g31
sa(dp3286
g8
I0
sg9
I67
sg10
I6
sg11
I4203
sg12
I3
sg13
g35
sa(dp3287
g8
I0
sg9
I50
sg10
I8
sg11
I3196
sg12
I4
sg13
g39
sa(dp3288
g8
I0
sg9
I1
sg10
I9
sg11
I38
sg12
I5
sg13
g43
sa(dp3289
g8
I0
sg9
I26
sg10
I12
sg11
I1701
sg12
I6
sg13
g47
sa(dp3290
g8
I0
sg9
I11
sg10
I15
sg11
I871
sg12
I7
sg13
g51
sa(dp3291
g8
I1
sg9
I37
sg10
I0
sg11
I2391
sg12
I8
sg13
g55
sa(dp3292
g8
I1
sg9
I16
sg10
I1
sg11
I993
sg12
I9
sg13
g59
sa(dp3293
g8
I1
sg9
I45
sg10
I2
sg11
I2780
sg12
I10
sg13
g63
sa(dp3294
g8
I1
sg9
I78
sg10
I3
sg11
I4703
sg12
I11
sg13
g67
sa(dp3295
g8
I1
sg9
I53
sg10
I4
sg11
I3187
sg12
I12
sg13
g71
sa(dp3296
g8
I1
sg9
I11
sg10
I5
sg11
I853
sg12
I13
sg13
g75
sa(dp3297
g8
I1
sg9
I13
sg10
I8
sg11
I900
sg12
I14
sg13
g79
sa(dp3298
g8
I1
sg9
I97
sg10
I10
sg11
I5495
sg12
I15
sg13
g83
sa(dp3299
g8
I1
sg9
I80
sg10
I11
sg11
I4816
sg12
I16
sg13
g87
sa(dp3300
g8
I1
sg9
I75
sg10
I12
sg11
I4548
sg12
I17
sg13
g91
sa(dp3301
g8
I1
sg9
I77
sg10
I13
sg11
I4666
sg12
I18
sg13
g95
sa(dp3302
g8
I1
sg9
I72
sg10
I15
sg11
I4279
sg12
I19
sg13
g99
sa(dp3303
g8
I2
sg9
I84
sg10
I1
sg11
I5092
sg12
I20
sg13
g103
sa(dp3304
g8
I2
sg9
I5
sg10
I2
sg11
I405
sg12
I21
sg13
g107
sa(dp3305
g8
I2
sg9
I6
sg10
I3
sg11
I445
sg12
I22
sg13
g111
sa(dp3306
g8
I2
sg9
I47
sg10
I6
sg11
I2965
sg12
I23
sg13
g115
sa(dp3307
g8
I2
sg9
I4
sg10
I7
sg11
I304
sg12
I24
sg13
g119
sa(dp3308
g8
I2
sg9
I25
sg10
I9
sg11
I1664
sg12
I25
sg13
g123
sa(dp3309
g8
I2
sg9
I16
sg10
I10
sg11
I965
sg12
I26
sg13
g127
sa(dp3310
g8
I2
sg9
I60
sg10
I12
sg11
I3497
sg12
I27
sg13
g131
sa(dp3311
g8
I2
sg9
I99
sg10
I14
sg11
I5544
sg12
I28
sg13
g135
sa(dp3312
g8
I2
sg9
I70
sg10
I15
sg11
I4379
sg12
I29
sg13
g139
sa(dp3313
g8
I3
sg9
I28
sg10
I0
sg11
I2008
sg12
I30
sg13
g143
sa(dp3314
g8
I3
sg9
I32
sg10
I1
sg11
I2162
sg12
I31
sg13
g147
sa(dp3315
g8
I3
sg9
I9
sg10
I2
sg11
I683
sg12
I32
sg13
g151
sa(dp3316
g8
I3
sg9
I75
sg10
I6
sg11
I4551
sg12
I33
sg13
g155
sa(dp3317
g8
I3
sg9
I33
sg10
I7
sg11
I2200
sg12
I34
sg13
g159
sa(dp3318
g8
I3
sg9
I98
sg10
I8
sg11
I5506
sg12
I35
sg13
g163
sa(dp3319
g8
I3
sg9
I52
sg10
I9
sg11
I3181
sg12
I36
sg13
g167
sa(dp3320
g8
I3
sg9
I73
sg10
I10
sg11
I4408
sg12
I37
sg13
g171
sa(dp3321
g8
I3
sg9
I2
sg10
I11
sg11
I71
sg12
I38
sg13
g175
sa(dp3322
g8
I3
sg9
I46
sg10
I12
sg11
I2819
sg12
I39
sg13
g179
sa(dp3323
g8
I3
sg9
I37
sg10
I13
sg11
I2394
sg12
I40
sg13
g183
sa(dp3324
g8
I4
sg9
I66
sg10
I1
sg11
I3990
sg12
I41
sg13
g187
sa(dp3325
g8
I4
sg9
I98
sg10
I2
sg11
I5496
sg12
I42
sg13
g191
sa(dp3326
g8
I4
sg9
I64
sg10
I4
sg11
I3955
sg12
I43
sg13
g195
sa(dp3327
g8
I4
sg9
I48
sg10
I5
sg11
I2991
sg12
I44
sg13
g199
sa(dp3328
g8
I4
sg9
I32
sg10
I7
sg11
I2154
sg12
I45
sg13
g203
sa(dp3329
g8
I4
sg9
I24
sg10
I9
sg11
I1604
sg12
I46
sg13
g207
sa(dp3330
g8
I4
sg9
I63
sg10
I11
sg11
I3788
sg12
I47
sg13
g211
sa(dp3331
g8
I4
sg9
I19
sg10
I13
sg11
I1217
sg12
I48
sg13
g215
sa(dp3332
g8
I4
sg9
I24
sg10
I15
sg11
I1630
sg12
I49
sg13
g219
sa(dp3333
g8
I5
sg9
I96
sg10
I0
sg11
I5502
sg12
I50
sg13
g223
sa(dp3334
g8
I5
sg9
I49
sg10
I2
sg11
I3043
sg12
I51
sg13
g227
sa(dp3335
g8
I5
sg9
I22
sg10
I4
sg11
I1304
sg12
I52
sg13
g231
sa(dp3336
g8
I5
sg9
I61
sg10
I6
sg11
I3625
sg12
I53
sg13
g235
sa(dp3337
g8
I5
sg9
I62
sg10
I7
sg11
I3756
sg12
I54
sg13
g239
sa(dp3338
g8
I5
sg9
I75
sg10
I8
sg11
I4566
sg12
I55
sg13
g243
sa(dp3339
g8
I5
sg9
I96
sg10
I10
sg11
I5637
sg12
I56
sg13
g247
sa(dp3340
g8
I5
sg9
I40
sg10
I11
sg11
I2481
sg12
I57
sg13
g251
sa(dp3341
g8
I5
sg9
I4
sg10
I12
sg11
I342
sg12
I58
sg13
g255
sa(dp3342
g8
I6
sg9
I68
sg10
I1
sg11
I4095
sg12
I59
sg13
g259
sa(dp3343
g8
I6
sg9
I68
sg10
I2
sg11
I4130
sg12
I60
sg13
g263
sa(dp3344
g8
I6
sg9
I73
sg10
I3
sg11
I4521
sg12
I61
sg13
g267
sa(dp3345
g8
I6
sg9
I21
sg10
I5
sg11
I1281
sg12
I62
sg13
g271
sa(dp3346
g8
I6
sg9
I52
sg10
I7
sg11
I3202
sg12
I63
sg13
g275
sa(dp3347
g8
I6
sg9
I57
sg10
I9
sg11
I3389
sg12
I64
sg13
g279
sa(dp3348
g8
I6
sg9
I47
sg10
I11
sg11
I2859
sg12
I65
sg13
g283
sa(dp3349
g8
I6
sg9
I34
sg10
I13
sg11
I2163
sg12
I66
sg13
g287
sa(dp3350
g8
I6
sg9
I71
sg10
I14
sg11
I4341
sg12
I67
sg13
g291
sa(dp3351
g8
I7
sg9
I21
sg10
I0
sg11
I1448
sg12
I68
sg13
g295
sa(dp3352
g8
I7
sg9
I86
sg10
I2
sg11
I5125
sg12
I69
sg13
g299
sa(dp3353
g8
I7
sg9
I26
sg10
I3
sg11
I1698
sg12
I70
sg13
g303
sa(dp3354
g8
I7
sg9
I20
sg10
I4
sg11
I1399
sg12
I71
sg13
g307
sa(dp3355
g8
I7
sg9
I35
sg10
I5
sg11
I2171
sg12
I72
sg13
g311
sa(dp3356
g8
I7
sg9
I96
sg10
I7
sg11
I5542
sg12
I73
sg13
g315
sa(dp3357
g8
I7
sg9
I7
sg10
I8
sg11
I489
sg12
I74
sg13
g319
sa(dp3358
g8
I7
sg9
I56
sg10
I9
sg11
I3364
sg12
I75
sg13
g323
sa(dp3359
g8
I7
sg9
I79
sg10
I10
sg11
I4828
sg12
I76
sg13
g327
sa(dp3360
g8
I7
sg9
I26
sg10
I12
sg11
I1734
sg12
I77
sg13
g331
sa(dp3361
g8
I7
sg9
I46
sg10
I14
sg11
I2854
sg12
I78
sg13
g335
sa(dp3362
g8
I8
sg9
I3
sg10
I4
sg11
I272
sg12
I79
sg13
g339
sa(dp3363
g8
I8
sg9
I97
sg10
I5
sg11
I5622
sg12
I80
sg13
g343
sa(dp3364
g8
I8
sg9
I98
sg10
I6
sg11
I5505
sg12
I81
sg13
g347
sa(dp3365
g8
I8
sg9
I3
sg10
I7
sg11
I147
sg12
I82
sg13
g351
sa(dp3366
g8
I8
sg9
I41
sg10
I8
sg11
I2603
sg12
I83
sg13
g355
sa(dp3367
g8
I8
sg9
I41
sg10
I9
sg11
I2631
sg12
I84
sg13
g359
sa(dp3368
g8
I8
sg9
I12
sg10
I10
sg11
I754
sg12
I85
sg13
g363
sa(dp3369
g8
I8
sg9
I77
sg10
I14
sg11
I4590
sg12
I86
sg13
g367
sa(dp3370
g8
I9
sg9
I14
sg10
I1
sg11
I933
sg12
I87
sg13
g371
sa(dp3371
g8
I9
sg9
I90
sg10
I2
sg11
I5246
sg12
I88
sg13
g375
sa(dp3372
g8
I9
sg9
I34
sg10
I4
sg11
I2323
sg12
I89
sg13
g379
sa(dp3373
g8
I9
sg9
I34
sg10
I5
sg11
I2355
sg12
I90
sg13
g383
sa(dp3374
g8
I9
sg9
I89
sg10
I6
sg11
I5346
sg12
I91
sg13
g387
sa(dp3375
g8
I9
sg9
I51
sg10
I7
sg11
I3241
sg12
I92
sg13
g391
sa(dp3376
g8
I9
sg9
I42
sg10
I8
sg11
I2713
sg12
I93
sg13
g395
sa(dp3377
g8
I9
sg9
I66
sg10
I9
sg11
I3979
sg12
I94
sg13
g399
sa(dp3378
g8
I9
sg9
I47
sg10
I10
sg11
I2843
sg12
I95
sg13
g403
sa(dp3379
g8
I9
sg9
I47
sg10
I11
sg11
I2889
sg12
I96
sg13
g407
sa(dp3380
g8
I9
sg9
I50
sg10
I13
sg11
I3191
sg12
I97
sg13
g411
sa(dp3381
g8
I9
sg9
I34
sg10
I14
sg11
I2278
sg12
I98
sg13
g415
sa(dp3382
g8
I10
sg9
I6
sg10
I1
sg11
I450
sg12
I99
sg13
g419
sa(dp3383
g8
I10
sg9
I59
sg10
I2
sg11
I3598
sg12
I100
sg13
g423
sa(dp3384
g8
I10
sg9
I5
sg10
I4
sg11
I394
sg12
I101
sg13
g427
sa(dp3385
g8
I10
sg9
I66
sg10
I7
sg11
I4060
sg12
I102
sg13
g431
sa(dp3386
g8
I10
sg9
I2
sg10
I8
sg11
I69
sg12
I103
sg13
g435
sa(dp3387
g8
I10
sg9
I12
sg10
I10
sg11
I722
sg12
I104
sg13
g439
sa(dp3388
g8
I10
sg9
I49
sg10
I11
sg11
I3088
sg12
I105
sg13
g443
sa(dp3389
g8
I10
sg9
I49
sg10
I12
sg11
I3050
sg12
I106
sg13
g447
sa(dp3390
g8
I10
sg9
I57
sg10
I13
sg11
I3457
sg12
I107
sg13
g451
sa(dp3391
g8
I10
sg9
I86
sg10
I14
sg11
I5119
sg12
I108
sg13
g455
sa(dp3392
g8
I11
sg9
I92
sg10
I0
sg11
I5463
sg12
I109
sg13
g459
sa(dp3393
g8
I11
sg9
I54
sg10
I2
sg11
I3328
sg12
I110
sg13
g463
sa(dp3394
g8
I11
sg9
I39
sg10
I3
sg11
I2491
sg12
I111
sg13
g467
sa(dp3395
g8
I11
sg9
I66
sg10
I4
sg11
I3991
sg12
I112
sg13
g471
sa(dp3396
g8
I11
sg9
I27
sg10
I5
sg11
I1962
sg12
I113
sg13
g475
sa(dp3397
g8
I11
sg9
I50
sg10
I6
sg11
I3195
sg12
I114
sg13
g479
sa(dp3398
g8
I11
sg9
I19
sg10
I8
sg11
I1122
sg12
I115
sg13
g483
sa(dp3399
g8
I11
sg9
I72
sg10
I10
sg11
I4310
sg12
I116
sg13
g487
sa(dp3400
g8
I11
sg9
I13
sg10
I11
sg11
I714
sg12
I117
sg13
g491
sa(dp3401
g8
I11
sg9
I61
sg10
I12
sg11
I3635
sg12
I118
sg13
g495
sa(dp3402
g8
I11
sg9
I33
sg10
I13
sg11
I2202
sg12
I119
sg13
g499
sa(dp3403
g8
I11
sg9
I24
sg10
I15
sg11
I1490
sg12
I120
sg13
g503
sa(dp3404
g8
I12
sg9
I49
sg10
I0
sg11
I3158
sg12
I121
sg13
g507
sa(dp3405
g8
I12
sg9
I24
sg10
I3
sg11
I1479
sg12
I122
sg13
g511
sa(dp3406
g8
I12
sg9
I5
sg10
I5
sg11
I396
sg12
I123
sg13
g515
sa(dp3407
g8
I12
sg9
I84
sg10
I7
sg11
I5084
sg12
I124
sg13
g519
sa(dp3408
g8
I12
sg9
I97
sg10
I9
sg11
I5634
sg12
I125
sg13
g523
sa(dp3409
g8
I12
sg9
I77
sg10
I10
sg11
I4595
sg12
I126
sg13
g527
sa(dp3410
g8
I12
sg9
I85
sg10
I11
sg11
I5223
sg12
I127
sg13
g531
sa(dp3411
g8
I12
sg9
I50
sg10
I12
sg11
I3201
sg12
I128
sg13
g535
sa(dp3412
g8
I12
sg9
I69
sg10
I13
sg11
I4236
sg12
I129
sg13
g539
sa(dp3413
g8
I12
sg9
I1
sg10
I14
sg11
I41
sg12
I130
sg13
g543
sa(dp3414
g8
I12
sg9
I18
sg10
I15
sg11
I1091
sg12
I131
sg13
g547
sa(dp3415
g8
I13
sg9
I34
sg10
I1
sg11
I2211
sg12
I132
sg13
g551
sa(dp3416
g8
I13
sg9
I92
sg10
I2
sg11
I5472
sg12
I133
sg13
g555
sa(dp3417
g8
I13
sg9
I86
sg10
I3
sg11
I5122
sg12
I134
sg13
g559
sa(dp3418
g8
I13
sg9
I47
sg10
I4
sg11
I2779
sg12
I135
sg13
g563
sa(dp3419
g8
I13
sg9
I77
sg10
I5
sg11
I4645
sg12
I136
sg13
g567
sa(dp3420
g8
I13
sg9
I88
sg10
I6
sg11
I5437
sg12
I137
sg13
g571
sa(dp3421
g8
I13
sg9
I80
sg10
I8
sg11
I4899
sg12
I138
sg13
g575
sa(dp3422
g8
I13
sg9
I2
sg10
I9
sg11
I128
sg12
I139
sg13
g579
sa(dp3423
g8
I13
sg9
I44
sg10
I10
sg11
I2749
sg12
I140
sg13
g583
sa(dp3424
g8
I13
sg9
I88
sg10
I12
sg11
I5254
sg12
I141
sg13
g587
sa(dp3425
g8
I13
sg9
I38
sg10
I14
sg11
I2430
sg12
I142
sg13
g591
sa(dp3426
g8
I13
sg9
I26
sg10
I15
sg11
I1699
sg12
I143
sg13
g595
sa(dp3427
g8
I14
sg9
I57
sg10
I0
sg11
I3448
sg12
I144
sg13
g599
sa(dp3428
g8
I14
sg9
I4
sg10
I1
sg11
I369
sg12
I145
sg13
g603
sa(dp3429
g8
I14
sg9
I99
sg10
I4
sg11
I5498
sg12
I146
sg13
g607
sa(dp3430
g8
I14
sg9
I9
sg10
I5
sg11
I481
sg12
I147
sg13
g611
sa(dp3431
g8
I14
sg9
I57
sg10
I6
sg11
I3402
sg12
I148
sg13
g615
sa(dp3432
g8
I14
sg9
I47
sg10
I9
sg11
I2807
sg12
I149
sg13
g619
sa(dp3433
g8
I14
sg9
I31
sg10
I12
sg11
I2124
sg12
I150
sg13
g623
sa(dp3434
g8
I14
sg9
I3
sg10
I13
sg11
I75
sg12
I151
sg13
g627
sa(dp3435
g8
I14
sg9
I83
sg10
I15
sg11
I5049
sg12
I152
sg13
g631
sa(dp3436
g8
I15
sg9
I48
sg10
I0
sg11
I59
sg12
I153
sg13
g635
sa(dp3437
g8
I15
sg9
I79
sg10
I1
sg11
I141
sg12
I154
sg13
g639
sa(dp3438
g8
I15
sg9
I3
sg10
I3
sg11
I224
sg12
I155
sg13
g643
sa(dp3439
g8
I15
sg9
I87
sg10
I6
sg11
I175
sg12
I156
sg13
g647
sa(dp3440
g8
I15
sg9
I68
sg10
I8
sg11
I205
sg12
I157
sg13
g651
sa(dp3441
g8
I15
sg9
I83
sg10
I9
sg11
I226
sg12
I158
sg13
g655
sa(dp3442
g8
I15
sg9
I20
sg10
I11
sg11
I337
sg12
I159
sg13
g659
sa(dp3443
g8
I15
sg9
I19
sg10
I13
sg11
I352
sg12
I160
sg13
g663
sa(dp3444
g8
I15
sg9
I74
sg10
I14
sg11
I368
sg12
I161
sg13
g667
sa(dp3445
g8
I15
sg9
I80
sg10
I15
sg11
I475
sg12
I162
sg13
g671
sa(dp3446
g8
I0
sg9
I126
sg10
I0
sg11
I-1
sg12
I163
sg13
g675
sa(dp3447
g8
I0
sg9
I144
sg10
I2
sg11
I-1
sg12
I164
sg13
g679
sa(dp3448
g8
I0
sg9
I179
sg10
I3
sg11
I4655
sg12
I165
sg13
g683
sa(dp3449
g8
I0
sg9
I167
sg10
I6
sg11
I-1
sg12
I166
sg13
g687
sa(dp3450
g8
I0
sg9
I150
sg10
I8
sg11
I-1
sg12
I167
sg13
g691
sa(dp3451
g8
I0
sg9
I101
sg10
I9
sg11
I5672
sg12
I168
sg13
g695
sa(dp3452
g8
I0
sg9
I126
sg10
I12
sg11
I-1
sg12
I169
sg13
g699
sa(dp3453
g8
I0
sg9
I111
sg10
I15
sg11
I-1
sg12
I170
sg13
g703
sa(dp3454
g8
I1
sg9
I137
sg10
I0
sg11
I-1
sg12
I171
sg13
g707
sa(dp3455
g8
I1
sg9
I116
sg10
I1
sg11
I-1
sg12
I172
sg13
g711
sa(dp3456
g8
I1
sg9
I145
sg10
I2
sg11
I2687
sg12
I173
sg13
g715
sa(dp3457
g8
I1
sg9
I178
sg10
I3
sg11
I-1
sg12
I174
sg13
g719
sa(dp3458
g8
I1
sg9
I153
sg10
I4
sg11
I3095
sg12
I175
sg13
g723
sa(dp3459
g8
I1
sg9
I111
sg10
I5
sg11
I-1
sg12
I176
sg13
g727
sa(dp3460
g8
I1
sg9
I113
sg10
I8
sg11
I-1
sg12
I177
sg13
g731
sa(dp3461
g8
I1
sg9
I197
sg10
I10
sg11
I5398
sg12
I178
sg13
g735
sa(dp3462
g8
I1
sg9
I180
sg10
I11
sg11
I-1
sg12
I179
sg13
g739
sa(dp3463
g8
I1
sg9
I175
sg10
I12
sg11
I4452
sg12
I180
sg13
g743
sa(dp3464
g8
I1
sg9
I177
sg10
I13
sg11
I-1
sg12
I181
sg13
g747
sa(dp3465
g8
I1
sg9
I172
sg10
I15
sg11
I4200
sg12
I182
sg13
g751
sa(dp3466
g8
I2
sg9
I184
sg10
I1
sg11
I-1
sg12
I183
sg13
g755
sa(dp3467
g8
I2
sg9
I105
sg10
I2
sg11
I5761
sg12
I184
sg13
g759
sa(dp3468
g8
I2
sg9
I106
sg10
I3
sg11
I5713
sg12
I185
sg13
g763
sa(dp3469
g8
I2
sg9
I147
sg10
I6
sg11
I-1
sg12
I186
sg13
g767
sa(dp3470
g8
I2
sg9
I104
sg10
I7
sg11
I212
sg12
I187
sg13
g771
sa(dp3471
g8
I2
sg9
I125
sg10
I9
sg11
I-1
sg12
I188
sg13
g775
sa(dp3472
g8
I2
sg9
I116
sg10
I10
sg11
I874
sg12
I189
sg13
g779
sa(dp3473
g8
I2
sg9
I160
sg10
I12
sg11
I-1
sg12
I190
sg13
g783
sa(dp3474
g8
I2
sg9
I199
sg10
I14
sg11
I-1
sg12
I191
sg13
g787
sa(dp3475
g8
I2
sg9
I170
sg10
I15
sg11
I-1
sg12
I192
sg13
g791
sa(dp3476
g8
I3
sg9
I128
sg10
I0
sg11
I-1
sg12
I193
sg13
g795
sa(dp3477
g8
I3
sg9
I132
sg10
I1
sg11
I-1
sg12
I194
sg13
g799
sa(dp3478
g8
I3
sg9
I109
sg10
I2
sg11
I-1
sg12
I195
sg13
g803
sa(dp3479
g8
I3
sg9
I175
sg10
I6
sg11
I4458
sg12
I196
sg13
g807
sa(dp3480
g8
I3
sg9
I133
sg10
I7
sg11
I2102
sg12
I197
sg13
g811
sa(dp3481
g8
I3
sg9
I198
sg10
I8
sg11
I-1
sg12
I198
sg13
g815
sa(dp3482
g8
I3
sg9
I152
sg10
I9
sg11
I3082
sg12
I199
sg13
g819
sa(dp3483
g8
I3
sg9
I173
sg10
I10
sg11
I-1
sg12
I200
sg13
g823
sa(dp3484
g8
I3
sg9
I102
sg10
I11
sg11
I5662
sg12
I201
sg13
g827
sa(dp3485
g8
I3
sg9
I146
sg10
I12
sg11
I-1
sg12
I202
sg13
g831
sa(dp3486
g8
I3
sg9
I137
sg10
I13
sg11
I-1
sg12
I203
sg13
g835
sa(dp3487
g8
I4
sg9
I166
sg10
I1
sg11
I-1
sg12
I204
sg13
g839
sa(dp3488
g8
I4
sg9
I198
sg10
I2
sg11
I5401
sg12
I205
sg13
g843
sa(dp3489
g8
I4
sg9
I164
sg10
I4
sg11
I-1
sg12
I206
sg13
g847
sa(dp3490
g8
I4
sg9
I148
sg10
I5
sg11
I2893
sg12
I207
sg13
g851
sa(dp3491
g8
I4
sg9
I132
sg10
I7
sg11
I2060
sg12
I208
sg13
g855
sa(dp3492
g8
I4
sg9
I124
sg10
I9
sg11
I-1
sg12
I209
sg13
g859
sa(dp3493
g8
I4
sg9
I163
sg10
I11
sg11
I-1
sg12
I210
sg13
g863
sa(dp3494
g8
I4
sg9
I119
sg10
I13
sg11
I-1
sg12
I211
sg13
g867
sa(dp3495
g8
I4
sg9
I124
sg10
I15
sg11
I-1
sg12
I212
sg13
g871
sa(dp3496
g8
I5
sg9
I196
sg10
I0
sg11
I-1
sg12
I213
sg13
g875
sa(dp3497
g8
I5
sg9
I149
sg10
I2
sg11
I-1
sg12
I214
sg13
g879
sa(dp3498
g8
I5
sg9
I122
sg10
I4
sg11
I-1
sg12
I215
sg13
g883
sa(dp3499
g8
I5
sg9
I161
sg10
I6
sg11
I3529
sg12
I216
sg13
g887
sa(dp3500
g8
I5
sg9
I162
sg10
I7
sg11
I-1
sg12
I217
sg13
g891
sa(dp3501
g8
I5
sg9
I175
sg10
I8
sg11
I-1
sg12
I218
sg13
g895
sa(dp3502
g8
I5
sg9
I196
sg10
I10
sg11
I-1
sg12
I219
sg13
g899
sa(dp3503
g8
I5
sg9
I140
sg10
I11
sg11
I-1
sg12
I220
sg13
g903
sa(dp3504
g8
I5
sg9
I104
sg10
I12
sg11
I5673
sg12
I221
sg13
g907
sa(dp3505
g8
I6
sg9
I168
sg10
I1
sg11
I-1
sg12
I222
sg13
g911
sa(dp3506
g8
I6
sg9
I168
sg10
I2
sg11
I-1
sg12
I223
sg13
g915
sa(dp3507
g8
I6
sg9
I173
sg10
I3
sg11
I-1
sg12
I224
sg13
g919
sa(dp3508
g8
I6
sg9
I121
sg10
I5
sg11
I1183
sg12
I225
sg13
g923
sa(dp3509
g8
I6
sg9
I152
sg10
I7
sg11
I-1
sg12
I226
sg13
g927
sa(dp3510
g8
I6
sg9
I157
sg10
I9
sg11
I3290
sg12
I227
sg13
g931
sa(dp3511
g8
I6
sg9
I147
sg10
I11
sg11
I-1
sg12
I228
sg13
g935
sa(dp3512
g8
I6
sg9
I134
sg10
I13
sg11
I-1
sg12
I229
sg13
g939
sa(dp3513
g8
I6
sg9
I171
sg10
I14
sg11
I-1
sg12
I230
sg13
g943
sa(dp3514
g8
I7
sg9
I121
sg10
I0
sg11
I-1
sg12
I231
sg13
g947
sa(dp3515
g8
I7
sg9
I186
sg10
I2
sg11
I-1
sg12
I232
sg13
g951
sa(dp3516
g8
I7
sg9
I126
sg10
I3
sg11
I-1
sg12
I233
sg13
g955
sa(dp3517
g8
I7
sg9
I120
sg10
I4
sg11
I-1
sg12
I234
sg13
g959
sa(dp3518
g8
I7
sg9
I135
sg10
I5
sg11
I-1
sg12
I235
sg13
g963
sa(dp3519
g8
I7
sg9
I196
sg10
I7
sg11
I-1
sg12
I236
sg13
g967
sa(dp3520
g8
I7
sg9
I107
sg10
I8
sg11
I-1
sg12
I237
sg13
g971
sa(dp3521
g8
I7
sg9
I156
sg10
I9
sg11
I-1
sg12
I238
sg13
g975
sa(dp3522
g8
I7
sg9
I179
sg10
I10
sg11
I-1
sg12
I239
sg13
g979
sa(dp3523
g8
I7
sg9
I126
sg10
I12
sg11
I-1
sg12
I240
sg13
g983
sa(dp3524
g8
I7
sg9
I146
sg10
I14
sg11
I-1
sg12
I241
sg13
g987
sa(dp3525
g8
I8
sg9
I103
sg10
I4
sg11
I5868
sg12
I242
sg13
g991
sa(dp3526
g8
I8
sg9
I197
sg10
I5
sg11
I-1
sg12
I243
sg13
g995
sa(dp3527
g8
I8
sg9
I198
sg10
I6
sg11
I-1
sg12
I244
sg13
g999
sa(dp3528
g8
I8
sg9
I103
sg10
I7
sg11
I-1
sg12
I245
sg13
g1003
sa(dp3529
g8
I8
sg9
I141
sg10
I8
sg11
I-1
sg12
I246
sg13
g1007
sa(dp3530
g8
I8
sg9
I141
sg10
I9
sg11
I-1
sg12
I247
sg13
g1011
sa(dp3531
g8
I8
sg9
I112
sg10
I10
sg11
I-1
sg12
I248
sg13
g1015
sa(dp3532
g8
I8
sg9
I177
sg10
I14
sg11
I4491
sg12
I249
sg13
g1019
sa(dp3533
g8
I9
sg9
I114
sg10
I1
sg11
I-1
sg12
I250
sg13
g1023
sa(dp3534
g8
I9
sg9
I190
sg10
I2
sg11
I5149
sg12
I251
sg13
g1027
sa(dp3535
g8
I9
sg9
I134
sg10
I4
sg11
I-1
sg12
I252
sg13
g1031
sa(dp3536
g8
I9
sg9
I134
sg10
I5
sg11
I-1
sg12
I253
sg13
g1035
sa(dp3537
g8
I9
sg9
I189
sg10
I6
sg11
I-1
sg12
I254
sg13
g1039
sa(dp3538
g8
I9
sg9
I151
sg10
I7
sg11
I-1
sg12
I255
sg13
g1043
sa(dp3539
g8
I9
sg9
I142
sg10
I8
sg11
I-1
sg12
I256
sg13
g1047
sa(dp3540
g8
I9
sg9
I166
sg10
I9
sg11
I3880
sg12
I257
sg13
g1051
sa(dp3541
g8
I9
sg9
I147
sg10
I10
sg11
I-1
sg12
I258
sg13
g1055
sa(dp3542
g8
I9
sg9
I147
sg10
I11
sg11
I-1
sg12
I259
sg13
g1059
sa(dp3543
g8
I9
sg9
I150
sg10
I13
sg11
I3100
sg12
I260
sg13
g1063
sa(dp3544
g8
I9
sg9
I134
sg10
I14
sg11
I-1
sg12
I261
sg13
g1067
sa(dp3545
g8
I10
sg9
I106
sg10
I1
sg11
I5673
sg12
I262
sg13
g1071
sa(dp3546
g8
I10
sg9
I159
sg10
I2
sg11
I-1
sg12
I263
sg13
g1075
sa(dp3547
g8
I10
sg9
I105
sg10
I4
sg11
I295
sg12
I264
sg13
g1079
sa(dp3548
g8
I10
sg9
I166
sg10
I7
sg11
I-1
sg12
I265
sg13
g1083
sa(dp3549
g8
I10
sg9
I102
sg10
I8
sg11
I5710
sg12
I266
sg13
g1087
sa(dp3550
g8
I10
sg9
I112
sg10
I10
sg11
I-1
sg12
I267
sg13
g1091
sa(dp3551
g8
I10
sg9
I149
sg10
I11
sg11
I-1
sg12
I268
sg13
g1095
sa(dp3552
g8
I10
sg9
I149
sg10
I12
sg11
I-1
sg12
I269
sg13
g1099
sa(dp3553
g8
I10
sg9
I157
sg10
I13
sg11
I-1
sg12
I270
sg13
g1103
sa(dp3554
g8
I10
sg9
I186
sg10
I14
sg11
I5023
sg12
I271
sg13
g1107
sa(dp3555
g8
I11
sg9
I192
sg10
I0
sg11
I5368
sg12
I272
sg13
g1111
sa(dp3556
g8
I11
sg9
I154
sg10
I2
sg11
I-1
sg12
I273
sg13
g1115
sa(dp3557
g8
I11
sg9
I139
sg10
I3
sg11
I-1
sg12
I274
sg13
g1119
sa(dp3558
g8
I11
sg9
I166
sg10
I4
sg11
I-1
sg12
I275
sg13
g1123
sa(dp3559
g8
I11
sg9
I127
sg10
I5
sg11
I-1
sg12
I276
sg13
g1127
sa(dp3560
g8
I11
sg9
I150
sg10
I6
sg11
I-1
sg12
I277
sg13
g1131
sa(dp3561
g8
I11
sg9
I119
sg10
I8
sg11
I-1
sg12
I278
sg13
g1135
sa(dp3562
g8
I11
sg9
I172
sg10
I10
sg11
I-1
sg12
I279
sg13
g1139
sa(dp3563
g8
I11
sg9
I113
sg10
I11
sg11
I-1
sg12
I280
sg13
g1143
sa(dp3564
g8
I11
sg9
I161
sg10
I12
sg11
I-1
sg12
I281
sg13
g1147
sa(dp3565
g8
I11
sg9
I133
sg10
I13
sg11
I2106
sg12
I282
sg13
g1151
sa(dp3566
g8
I11
sg9
I124
sg10
I15
sg11
I-1
sg12
I283
sg13
g1155
sa(dp3567
g8
I12
sg9
I149
sg10
I0
sg11
I-1
sg12
I284
sg13
g1159
sa(dp3568
g8
I12
sg9
I124
sg10
I3
sg11
I1388
sg12
I285
sg13
g1163
sa(dp3569
g8
I12
sg9
I105
sg10
I5
sg11
I299
sg12
I286
sg13
g1167
sa(dp3570
g8
I12
sg9
I184
sg10
I7
sg11
I-1
sg12
I287
sg13
g1171
sa(dp3571
g8
I12
sg9
I197
sg10
I9
sg11
I-1
sg12
I288
sg13
g1175
sa(dp3572
g8
I12
sg9
I177
sg10
I10
sg11
I-1
sg12
I289
sg13
g1179
sa(dp3573
g8
I12
sg9
I185
sg10
I11
sg11
I-1
sg12
I290
sg13
g1183
sa(dp3574
g8
I12
sg9
I150
sg10
I12
sg11
I-1
sg12
I291
sg13
g1187
sa(dp3575
g8
I12
sg9
I169
sg10
I13
sg11
I-1
sg12
I292
sg13
g1191
sa(dp3576
g8
I12
sg9
I101
sg10
I14
sg11
I5675
sg12
I293
sg13
g1195
sa(dp3577
g8
I12
sg9
I118
sg10
I15
sg11
I-1
sg12
I294
sg13
g1199
sa(dp3578
g8
I13
sg9
I134
sg10
I1
sg11
I-1
sg12
I295
sg13
g1203
sa(dp3579
g8
I13
sg9
I192
sg10
I2
sg11
I-1
sg12
I296
sg13
g1207
sa(dp3580
g8
I13
sg9
I186
sg10
I3
sg11
I-1
sg12
I297
sg13
g1211
sa(dp3581
g8
I13
sg9
I147
sg10
I4
sg11
I2687
sg12
I298
sg13
g1215
sa(dp3582
g8
I13
sg9
I177
sg10
I5
sg11
I-1
sg12
I299
sg13
g1219
sa(dp3583
g8
I13
sg9
I188
sg10
I6
sg11
I-1
sg12
I300
sg13
g1223
sa(dp3584
g8
I13
sg9
I180
sg10
I8
sg11
I-1
sg12
I301
sg13
g1227
sa(dp3585
g8
I13
sg9
I102
sg10
I9
sg11
I5724
sg12
I302
sg13
g1231
sa(dp3586
g8
I13
sg9
I144
sg10
I10
sg11
I-1
sg12
I303
sg13
g1235
sa(dp3587
g8
I13
sg9
I188
sg10
I12
sg11
I-1
sg12
I304
sg13
g1239
sa(dp3588
g8
I13
sg9
I138
sg10
I14
sg11
I-1
sg12
I305
sg13
g1243
sa(dp3589
g8
I13
sg9
I126
sg10
I15
sg11
I-1
sg12
I306
sg13
g1247
sa(dp3590
g8
I14
sg9
I157
sg10
I0
sg11
I-1
sg12
I307
sg13
g1251
sa(dp3591
g8
I14
sg9
I104
sg10
I1
sg11
I5827
sg12
I308
sg13
g1255
sa(dp3592
g8
I14
sg9
I199
sg10
I4
sg11
I-1
sg12
I309
sg13
g1259
sa(dp3593
g8
I14
sg9
I109
sg10
I5
sg11
I-1
sg12
I310
sg13
g1263
sa(dp3594
g8
I14
sg9
I157
sg10
I6
sg11
I-1
sg12
I311
sg13
g1267
sa(dp3595
g8
I14
sg9
I147
sg10
I9
sg11
I2743
sg12
I312
sg13
g1271
sa(dp3596
g8
I14
sg9
I131
sg10
I12
sg11
I-1
sg12
I313
sg13
g1275
sa(dp3597
g8
I14
sg9
I103
sg10
I13
sg11
I5666
sg12
I314
sg13
g1279
sa(dp3598
g8
I14
sg9
I183
sg10
I15
sg11
I-1
sg12
I315
sg13
g1283
sa(dp3599
g8
I15
sg9
I148
sg10
I0
sg11
I422
sg12
I316
sg13
g1287
sa(dp3600
g8
I15
sg9
I179
sg10
I1
sg11
I479
sg12
I317
sg13
g1291
sa(dp3601
g8
I15
sg9
I103
sg10
I3
sg11
I580
sg12
I318
sg13
g1295
sa(dp3602
g8
I15
sg9
I187
sg10
I6
sg11
I606
sg12
I319
sg13
g1299
sa(dp3603
g8
I15
sg9
I168
sg10
I8
sg11
I636
sg12
I320
sg13
g1303
sa(dp3604
g8
I15
sg9
I183
sg10
I9
sg11
I632
sg12
I321
sg13
g1307
sa(dp3605
g8
I15
sg9
I120
sg10
I11
sg11
I743
sg12
I322
sg13
g1311
sa(dp3606
g8
I15
sg9
I119
sg10
I13
sg11
I758
sg12
I323
sg13
g1315
sa(dp3607
g8
I15
sg9
I174
sg10
I14
sg11
I799
sg12
I324
sg13
g1319
sa(dp3608
g8
I15
sg9
I180
sg10
I15
sg11
I1006
sg12
I325
sg13
g1323
sa(dp3609
g8
I0
sg9
I226
sg10
I0
sg11
I-1
sg12
I326
sg13
g1327
sa(dp3610
g8
I0
sg9
I244
sg10
I2
sg11
I-1
sg12
I327
sg13
g1331
sa(dp3611
g8
I0
sg9
I279
sg10
I3
sg11
I4569
sg12
I328
sg13
g1335
sa(dp3612
g8
I0
sg9
I267
sg10
I6
sg11
I-1
sg12
I329
sg13
g1339
sa(dp3613
g8
I0
sg9
I250
sg10
I8
sg11
I-1
sg12
I330
sg13
g1343
sa(dp3614
g8
I0
sg9
I201
sg10
I9
sg11
I-1
sg12
I331
sg13
g1347
sa(dp3615
g8
I0
sg9
I226
sg10
I12
sg11
I-1
sg12
I332
sg13
g1351
sa(dp3616
g8
I0
sg9
I211
sg10
I15
sg11
I-1
sg12
I333
sg13
g1355
sa(dp3617
g8
I1
sg9
I237
sg10
I0
sg11
I-1
sg12
I334
sg13
g1359
sa(dp3618
g8
I1
sg9
I216
sg10
I1
sg11
I-1
sg12
I335
sg13
g1363
sa(dp3619
g8
I1
sg9
I245
sg10
I2
sg11
I2594
sg12
I336
sg13
g1367
sa(dp3620
g8
I1
sg9
I278
sg10
I3
sg11
I-1
sg12
I337
sg13
g1371
sa(dp3621
g8
I1
sg9
I253
sg10
I4
sg11
I-1
sg12
I338
sg13
g1375
sa(dp3622
g8
I1
sg9
I211
sg10
I5
sg11
I-1
sg12
I339
sg13
g1379
sa(dp3623
g8
I1
sg9
I213
sg10
I8
sg11
I-1
sg12
I340
sg13
g1383
sa(dp3624
g8
I1
sg9
I297
sg10
I10
sg11
I5301
sg12
I341
sg13
g1387
sa(dp3625
g8
I1
sg9
I280
sg10
I11
sg11
I-1
sg12
I342
sg13
g1391
sa(dp3626
g8
I1
sg9
I275
sg10
I12
sg11
I4356
sg12
I343
sg13
g1395
sa(dp3627
g8
I1
sg9
I277
sg10
I13
sg11
I-1
sg12
I344
sg13
g1399
sa(dp3628
g8
I1
sg9
I272
sg10
I15
sg11
I4121
sg12
I345
sg13
g1403
sa(dp3629
g8
I2
sg9
I284
sg10
I1
sg11
I-1
sg12
I346
sg13
g1407
sa(dp3630
g8
I2
sg9
I205
sg10
I2
sg11
I-1
sg12
I347
sg13
g1411
sa(dp3631
g8
I2
sg9
I206
sg10
I3
sg11
I-1
sg12
I348
sg13
g1415
sa(dp3632
g8
I2
sg9
I247
sg10
I6
sg11
I-1
sg12
I349
sg13
g1419
sa(dp3633
g8
I2
sg9
I204
sg10
I7
sg11
I120
sg12
I350
sg13
g1423
sa(dp3634
g8
I2
sg9
I225
sg10
I9
sg11
I-1
sg12
I351
sg13
g1427
sa(dp3635
g8
I2
sg9
I216
sg10
I10
sg11
I783
sg12
I352
sg13
g1431
sa(dp3636
g8
I2
sg9
I260
sg10
I12
sg11
I-1
sg12
I353
sg13
g1435
sa(dp3637
g8
I2
sg9
I299
sg10
I14
sg11
I-1
sg12
I354
sg13
g1439
sa(dp3638
g8
I2
sg9
I270
sg10
I15
sg11
I-1
sg12
I355
sg13
g1443
sa(dp3639
g8
I3
sg9
I228
sg10
I0
sg11
I-1
sg12
I356
sg13
g1447
sa(dp3640
g8
I3
sg9
I232
sg10
I1
sg11
I-1
sg12
I357
sg13
g1451
sa(dp3641
g8
I3
sg9
I209
sg10
I2
sg11
I-1
sg12
I358
sg13
g1455
sa(dp3642
g8
I3
sg9
I275
sg10
I6
sg11
I4365
sg12
I359
sg13
g1459
sa(dp3643
g8
I3
sg9
I233
sg10
I7
sg11
I2004
sg12
I360
sg13
g1463
sa(dp3644
g8
I3
sg9
I298
sg10
I8
sg11
I-1
sg12
I361
sg13
g1467
sa(dp3645
g8
I3
sg9
I252
sg10
I9
sg11
I2983
sg12
I362
sg13
g1471
sa(dp3646
g8
I3
sg9
I273
sg10
I10
sg11
I-1
sg12
I363
sg13
g1475
sa(dp3647
g8
I3
sg9
I202
sg10
I11
sg11
I5568
sg12
I364
sg13
g1479
sa(dp3648
g8
I3
sg9
I246
sg10
I12
sg11
I-1
sg12
I365
sg13
g1483
sa(dp3649
g8
I3
sg9
I237
sg10
I13
sg11
I-1
sg12
I366
sg13
g1487
sa(dp3650
g8
I4
sg9
I266
sg10
I1
sg11
I-1
sg12
I367
sg13
g1491
sa(dp3651
g8
I4
sg9
I298
sg10
I2
sg11
I5306
sg12
I368
sg13
g1495
sa(dp3652
g8
I4
sg9
I264
sg10
I4
sg11
I-1
sg12
I369
sg13
g1499
sa(dp3653
g8
I4
sg9
I248
sg10
I5
sg11
I2795
sg12
I370
sg13
g1503
sa(dp3654
g8
I4
sg9
I232
sg10
I7
sg11
I1966
sg12
I371
sg13
g1507
sa(dp3655
g8
I4
sg9
I224
sg10
I9
sg11
I-1
sg12
I372
sg13
g1511
sa(dp3656
g8
I4
sg9
I263
sg10
I11
sg11
I-1
sg12
I373
sg13
g1515
sa(dp3657
g8
I4
sg9
I219
sg10
I13
sg11
I-1
sg12
I374
sg13
g1519
sa(dp3658
g8
I4
sg9
I224
sg10
I15
sg11
I-1
sg12
I375
sg13
g1523
sa(dp3659
g8
I5
sg9
I296
sg10
I0
sg11
I-1
sg12
I376
sg13
g1527
sa(dp3660
g8
I5
sg9
I249
sg10
I2
sg11
I-1
sg12
I377
sg13
g1531
sa(dp3661
g8
I5
sg9
I222
sg10
I4
sg11
I-1
sg12
I378
sg13
g1535
sa(dp3662
g8
I5
sg9
I261
sg10
I6
sg11
I3433
sg12
I379
sg13
g1539
sa(dp3663
g8
I5
sg9
I262
sg10
I7
sg11
I-1
sg12
I380
sg13
g1543
sa(dp3664
g8
I5
sg9
I275
sg10
I8
sg11
I-1
sg12
I381
sg13
g1547
sa(dp3665
g8
I5
sg9
I296
sg10
I10
sg11
I-1
sg12
I382
sg13
g1551
sa(dp3666
g8
I5
sg9
I240
sg10
I11
sg11
I-1
sg12
I383
sg13
g1555
sa(dp3667
g8
I5
sg9
I204
sg10
I12
sg11
I-1
sg12
I384
sg13
g1559
sa(dp3668
g8
I6
sg9
I268
sg10
I1
sg11
I-1
sg12
I385
sg13
g1563
sa(dp3669
g8
I6
sg9
I268
sg10
I2
sg11
I-1
sg12
I386
sg13
g1567
sa(dp3670
g8
I6
sg9
I273
sg10
I3
sg11
I-1
sg12
I387
sg13
g1571
sa(dp3671
g8
I6
sg9
I221
sg10
I5
sg11
I1085
sg12
I388
sg13
g1575
sa(dp3672
g8
I6
sg9
I252
sg10
I7
sg11
I-1
sg12
I389
sg13
g1579
sa(dp3673
g8
I6
sg9
I257
sg10
I9
sg11
I3191
sg12
I390
sg13
g1583
sa(dp3674
g8
I6
sg9
I247
sg10
I11
sg11
I-1
sg12
I391
sg13
g1587
sa(dp3675
g8
I6
sg9
I234
sg10
I13
sg11
I-1
sg12
I392
sg13
g1591
sa(dp3676
g8
I6
sg9
I271
sg10
I14
sg11
I-1
sg12
I393
sg13
g1595
sa(dp3677
g8
I7
sg9
I221
sg10
I0
sg11
I-1
sg12
I394
sg13
g1599
sa(dp3678
g8
I7
sg9
I286
sg10
I2
sg11
I-1
sg12
I395
sg13
g1603
sa(dp3679
g8
I7
sg9
I226
sg10
I3
sg11
I-1
sg12
I396
sg13
g1607
sa(dp3680
g8
I7
sg9
I220
sg10
I4
sg11
I-1
sg12
I397
sg13
g1611
sa(dp3681
g8
I7
sg9
I235
sg10
I5
sg11
I-1
sg12
I398
sg13
g1615
sa(dp3682
g8
I7
sg9
I296
sg10
I7
sg11
I-1
sg12
I399
sg13
g1619
sa(dp3683
g8
I7
sg9
I207
sg10
I8
sg11
I-1
sg12
I400
sg13
g1623
sa(dp3684
g8
I7
sg9
I256
sg10
I9
sg11
I-1
sg12
I401
sg13
g1627
sa(dp3685
g8
I7
sg9
I279
sg10
I10
sg11
I-1
sg12
I402
sg13
g1631
sa(dp3686
g8
I7
sg9
I226
sg10
I12
sg11
I-1
sg12
I403
sg13
g1635
sa(dp3687
g8
I7
sg9
I246
sg10
I14
sg11
I-1
sg12
I404
sg13
g1639
sa(dp3688
g8
I8
sg9
I203
sg10
I4
sg11
I-1
sg12
I405
sg13
g1643
sa(dp3689
g8
I8
sg9
I297
sg10
I5
sg11
I-1
sg12
I406
sg13
g1647
sa(dp3690
g8
I8
sg9
I298
sg10
I6
sg11
I-1
sg12
I407
sg13
g1651
sa(dp3691
g8
I8
sg9
I203
sg10
I7
sg11
I-1
sg12
I408
sg13
g1655
sa(dp3692
g8
I8
sg9
I241
sg10
I8
sg11
I-1
sg12
I409
sg13
g1659
sa(dp3693
g8
I8
sg9
I241
sg10
I9
sg11
I-1
sg12
I410
sg13
g1663
sa(dp3694
g8
I8
sg9
I212
sg10
I10
sg11
I-1
sg12
I411
sg13
g1667
sa(dp3695
g8
I8
sg9
I277
sg10
I14
sg11
I4392
sg12
I412
sg13
g1671
sa(dp3696
g8
I9
sg9
I214
sg10
I1
sg11
I-1
sg12
I413
sg13
g1675
sa(dp3697
g8
I9
sg9
I290
sg10
I2
sg11
I5052
sg12
I414
sg13
g1679
sa(dp3698
g8
I9
sg9
I234
sg10
I4
sg11
I-1
sg12
I415
sg13
g1683
sa(dp3699
g8
I9
sg9
I234
sg10
I5
sg11
I-1
sg12
I416
sg13
g1687
sa(dp3700
g8
I9
sg9
I289
sg10
I6
sg11
I-1
sg12
I417
sg13
g1691
sa(dp3701
g8
I9
sg9
I251
sg10
I7
sg11
I-1
sg12
I418
sg13
g1695
sa(dp3702
g8
I9
sg9
I242
sg10
I8
sg11
I-1
sg12
I419
sg13
g1699
sa(dp3703
g8
I9
sg9
I266
sg10
I9
sg11
I3781
sg12
I420
sg13
g1703
sa(dp3704
g8
I9
sg9
I247
sg10
I10
sg11
I-1
sg12
I421
sg13
g1707
sa(dp3705
g8
I9
sg9
I247
sg10
I11
sg11
I-1
sg12
I422
sg13
g1711
sa(dp3706
g8
I9
sg9
I250
sg10
I13
sg11
I-1
sg12
I423
sg13
g1715
sa(dp3707
g8
I9
sg9
I234
sg10
I14
sg11
I-1
sg12
I424
sg13
g1719
sa(dp3708
g8
I10
sg9
I206
sg10
I1
sg11
I-1
sg12
I425
sg13
g1723
sa(dp3709
g8
I10
sg9
I259
sg10
I2
sg11
I-1
sg12
I426
sg13
g1727
sa(dp3710
g8
I10
sg9
I205
sg10
I4
sg11
I196
sg12
I427
sg13
g1731
sa(dp3711
g8
I10
sg9
I266
sg10
I7
sg11
I-1
sg12
I428
sg13
g1735
sa(dp3712
g8
I10
sg9
I202
sg10
I8
sg11
I5614
sg12
I429
sg13
g1739
sa(dp3713
g8
I10
sg9
I212
sg10
I10
sg11
I-1
sg12
I430
sg13
g1743
sa(dp3714
g8
I10
sg9
I249
sg10
I11
sg11
I-1
sg12
I431
sg13
g1747
sa(dp3715
g8
I10
sg9
I249
sg10
I12
sg11
I-1
sg12
I432
sg13
g1751
sa(dp3716
g8
I10
sg9
I257
sg10
I13
sg11
I-1
sg12
I433
sg13
g1755
sa(dp3717
g8
I10
sg9
I286
sg10
I14
sg11
I-1
sg12
I434
sg13
g1759
sa(dp3718
g8
I11
sg9
I292
sg10
I0
sg11
I-1
sg12
I435
sg13
g1763
sa(dp3719
g8
I11
sg9
I254
sg10
I2
sg11
I-1
sg12
I436
sg13
g1767
sa(dp3720
g8
I11
sg9
I239
sg10
I3
sg11
I-1
sg12
I437
sg13
g1771
sa(dp3721
g8
I11
sg9
I266
sg10
I4
sg11
I-1
sg12
I438
sg13
g1775
sa(dp3722
g8
I11
sg9
I227
sg10
I5
sg11
I-1
sg12
I439
sg13
g1779
sa(dp3723
g8
I11
sg9
I250
sg10
I6
sg11
I-1
sg12
I440
sg13
g1783
sa(dp3724
g8
I11
sg9
I219
sg10
I8
sg11
I-1
sg12
I441
sg13
g1787
sa(dp3725
g8
I11
sg9
I272
sg10
I10
sg11
I-1
sg12
I442
sg13
g1791
sa(dp3726
g8
I11
sg9
I213
sg10
I11
sg11
I-1
sg12
I443
sg13
g1795
sa(dp3727
g8
I11
sg9
I261
sg10
I12
sg11
I-1
sg12
I444
sg13
g1799
sa(dp3728
g8
I11
sg9
I233
sg10
I13
sg11
I2010
sg12
I445
sg13
g1803
sa(dp3729
g8
I11
sg9
I224
sg10
I15
sg11
I-1
sg12
I446
sg13
g1807
sa(dp3730
g8
I12
sg9
I249
sg10
I0
sg11
I-1
sg12
I447
sg13
g1811
sa(dp3731
g8
I12
sg9
I224
sg10
I3
sg11
I-1
sg12
I448
sg13
g1815
sa(dp3732
g8
I12
sg9
I205
sg10
I5
sg11
I202
sg12
I449
sg13
g1819
sa(dp3733
g8
I12
sg9
I284
sg10
I7
sg11
I-1
sg12
I450
sg13
g1823
sa(dp3734
g8
I12
sg9
I297
sg10
I9
sg11
I-1
sg12
I451
sg13
g1827
sa(dp3735
g8
I12
sg9
I277
sg10
I10
sg11
I-1
sg12
I452
sg13
g1831
sa(dp3736
g8
I12
sg9
I285
sg10
I11
sg11
I-1
sg12
I453
sg13
g1835
sa(dp3737
g8
I12
sg9
I250
sg10
I12
sg11
I-1
sg12
I454
sg13
g1839
sa(dp3738
g8
I12
sg9
I269
sg10
I13
sg11
I-1
sg12
I455
sg13
g1843
sa(dp3739
g8
I12
sg9
I201
sg10
I14
sg11
I-1
sg12
I456
sg13
g1847
sa(dp3740
g8
I12
sg9
I218
sg10
I15
sg11
I-1
sg12
I457
sg13
g1851
sa(dp3741
g8
I13
sg9
I234
sg10
I1
sg11
I-1
sg12
I458
sg13
g1855
sa(dp3742
g8
I13
sg9
I292
sg10
I2
sg11
I-1
sg12
I459
sg13
g1859
sa(dp3743
g8
I13
sg9
I286
sg10
I3
sg11
I-1
sg12
I460
sg13
g1863
sa(dp3744
g8
I13
sg9
I247
sg10
I4
sg11
I2595
sg12
I461
sg13
g1867
sa(dp3745
g8
I13
sg9
I277
sg10
I5
sg11
I-1
sg12
I462
sg13
g1871
sa(dp3746
g8
I13
sg9
I288
sg10
I6
sg11
I-1
sg12
I463
sg13
g1875
sa(dp3747
g8
I13
sg9
I280
sg10
I8
sg11
I-1
sg12
I464
sg13
g1879
sa(dp3748
g8
I13
sg9
I202
sg10
I9
sg11
I-1
sg12
I465
sg13
g1883
sa(dp3749
g8
I13
sg9
I244
sg10
I10
sg11
I-1
sg12
I466
sg13
g1887
sa(dp3750
g8
I13
sg9
I288
sg10
I12
sg11
I-1
sg12
I467
sg13
g1891
sa(dp3751
g8
I13
sg9
I238
sg10
I14
sg11
I-1
sg12
I468
sg13
g1895
sa(dp3752
g8
I13
sg9
I226
sg10
I15
sg11
I-1
sg12
I469
sg13
g1899
sa(dp3753
g8
I14
sg9
I257
sg10
I0
sg11
I-1
sg12
I470
sg13
g1903
sa(dp3754
g8
I14
sg9
I204
sg10
I1
sg11
I-1
sg12
I471
sg13
g1907
sa(dp3755
g8
I14
sg9
I299
sg10
I4
sg11
I-1
sg12
I472
sg13
g1911
sa(dp3756
g8
I14
sg9
I209
sg10
I5
sg11
I-1
sg12
I473
sg13
g1915
sa(dp3757
g8
I14
sg9
I257
sg10
I6
sg11
I-1
sg12
I474
sg13
g1919
sa(dp3758
g8
I14
sg9
I247
sg10
I9
sg11
I-1
sg12
I475
sg13
g1923
sa(dp3759
g8
I14
sg9
I231
sg10
I12
sg11
I-1
sg12
I476
sg13
g1927
sa(dp3760
g8
I14
sg9
I203
sg10
I13
sg11
I5577
sg12
I477
sg13
g1931
sa(dp3761
g8
I14
sg9
I283
sg10
I15
sg11
I-1
sg12
I478
sg13
g1935
sa(dp3762
g8
I15
sg9
I248
sg10
I0
sg11
I801
sg12
I479
sg13
g1939
sa(dp3763
g8
I15
sg9
I279
sg10
I1
sg11
I935
sg12
I480
sg13
g1943
sa(dp3764
g8
I15
sg9
I203
sg10
I3
sg11
I1061
sg12
I481
sg13
g1947
sa(dp3765
g8
I15
sg9
I287
sg10
I6
sg11
I1037
sg12
I482
sg13
g1951
sa(dp3766
g8
I15
sg9
I268
sg10
I8
sg11
I1067
sg12
I483
sg13
g1955
sa(dp3767
g8
I15
sg9
I283
sg10
I9
sg11
I1063
sg12
I484
sg13
g1959
sa(dp3768
g8
I15
sg9
I220
sg10
I11
sg11
I1199
sg12
I485
sg13
g1963
sa(dp3769
g8
I15
sg9
I219
sg10
I13
sg11
I1239
sg12
I486
sg13
g1967
sa(dp3770
g8
I15
sg9
I274
sg10
I14
sg11
I1230
sg12
I487
sg13
g1971
sa(dp3771
g8
I15
sg9
I280
sg10
I15
sg11
I1322
sg12
I488
sg13
g1975
sa(dp3772
g8
I0
sg9
I326
sg10
I0
sg11
I-1
sg12
I489
sg13
g1979
sa(dp3773
g8
I0
sg9
I344
sg10
I2
sg11
I-1
sg12
I490
sg13
g1983
sa(dp3774
g8
I0
sg9
I379
sg10
I3
sg11
I4483
sg12
I491
sg13
g1987
sa(dp3775
g8
I0
sg9
I367
sg10
I6
sg11
I-1
sg12
I492
sg13
g1991
sa(dp3776
g8
I0
sg9
I350
sg10
I8
sg11
I-1
sg12
I493
sg13
g1995
sa(dp3777
g8
I0
sg9
I301
sg10
I9
sg11
I-1
sg12
I494
sg13
g1999
sa(dp3778
g8
I0
sg9
I326
sg10
I12
sg11
I-1
sg12
I495
sg13
g2003
sa(dp3779
g8
I0
sg9
I311
sg10
I15
sg11
I-1
sg12
I496
sg13
g2007
sa(dp3780
g8
I1
sg9
I337
sg10
I0
sg11
I-1
sg12
I497
sg13
g2011
sa(dp3781
g8
I1
sg9
I316
sg10
I1
sg11
I-1
sg12
I498
sg13
g2015
sa(dp3782
g8
I1
sg9
I345
sg10
I2
sg11
I2501
sg12
I499
sg13
g2019
sa(dp3783
g8
I1
sg9
I378
sg10
I3
sg11
I-1
sg12
I500
sg13
g2023
sa(dp3784
g8
I1
sg9
I353
sg10
I4
sg11
I-1
sg12
I501
sg13
g2027
sa(dp3785
g8
I1
sg9
I311
sg10
I5
sg11
I-1
sg12
I502
sg13
g2031
sa(dp3786
g8
I1
sg9
I313
sg10
I8
sg11
I-1
sg12
I503
sg13
g2035
sa(dp3787
g8
I1
sg9
I397
sg10
I10
sg11
I5204
sg12
I504
sg13
g2039
sa(dp3788
g8
I1
sg9
I380
sg10
I11
sg11
I-1
sg12
I505
sg13
g2043
sa(dp3789
g8
I1
sg9
I375
sg10
I12
sg11
I4260
sg12
I506
sg13
g2047
sa(dp3790
g8
I1
sg9
I377
sg10
I13
sg11
I-1
sg12
I507
sg13
g2051
sa(dp3791
g8
I1
sg9
I372
sg10
I15
sg11
I-1
sg12
I508
sg13
g2055
sa(dp3792
g8
I2
sg9
I384
sg10
I1
sg11
I-1
sg12
I509
sg13
g2059
sa(dp3793
g8
I2
sg9
I305
sg10
I2
sg11
I-1
sg12
I510
sg13
g2063
sa(dp3794
g8
I2
sg9
I306
sg10
I3
sg11
I-1
sg12
I511
sg13
g2067
sa(dp3795
g8
I2
sg9
I347
sg10
I6
sg11
I-1
sg12
I512
sg13
g2071
sa(dp3796
g8
I2
sg9
I304
sg10
I7
sg11
I28
sg12
I513
sg13
g2075
sa(dp3797
g8
I2
sg9
I325
sg10
I9
sg11
I-1
sg12
I514
sg13
g2079
sa(dp3798
g8
I2
sg9
I316
sg10
I10
sg11
I692
sg12
I515
sg13
g2083
sa(dp3799
g8
I2
sg9
I360
sg10
I12
sg11
I-1
sg12
I516
sg13
g2087
sa(dp3800
g8
I2
sg9
I399
sg10
I14
sg11
I-1
sg12
I517
sg13
g2091
sa(dp3801
g8
I2
sg9
I370
sg10
I15
sg11
I-1
sg12
I518
sg13
g2095
sa(dp3802
g8
I3
sg9
I328
sg10
I0
sg11
I-1
sg12
I519
sg13
g2099
sa(dp3803
g8
I3
sg9
I332
sg10
I1
sg11
I-1
sg12
I520
sg13
g2103
sa(dp3804
g8
I3
sg9
I309
sg10
I2
sg11
I-1
sg12
I521
sg13
g2107
sa(dp3805
g8
I3
sg9
I375
sg10
I6
sg11
I-1
sg12
I522
sg13
g2111
sa(dp3806
g8
I3
sg9
I333
sg10
I7
sg11
I1906
sg12
I523
sg13
g2115
sa(dp3807
g8
I3
sg9
I398
sg10
I8
sg11
I-1
sg12
I524
sg13
g2119
sa(dp3808
g8
I3
sg9
I352
sg10
I9
sg11
I2884
sg12
I525
sg13
g2123
sa(dp3809
g8
I3
sg9
I373
sg10
I10
sg11
I-1
sg12
I526
sg13
g2127
sa(dp3810
g8
I3
sg9
I302
sg10
I11
sg11
I5474
sg12
I527
sg13
g2131
sa(dp3811
g8
I3
sg9
I346
sg10
I12
sg11
I-1
sg12
I528
sg13
g2135
sa(dp3812
g8
I3
sg9
I337
sg10
I13
sg11
I-1
sg12
I529
sg13
g2139
sa(dp3813
g8
I4
sg9
I366
sg10
I1
sg11
I-1
sg12
I530
sg13
g2143
sa(dp3814
g8
I4
sg9
I398
sg10
I2
sg11
I-1
sg12
I531
sg13
g2147
sa(dp3815
g8
I4
sg9
I364
sg10
I4
sg11
I-1
sg12
I532
sg13
g2151
sa(dp3816
g8
I4
sg9
I348
sg10
I5
sg11
I2697
sg12
I533
sg13
g2155
sa(dp3817
g8
I4
sg9
I332
sg10
I7
sg11
I1872
sg12
I534
sg13
g2159
sa(dp3818
g8
I4
sg9
I324
sg10
I9
sg11
I-1
sg12
I535
sg13
g2163
sa(dp3819
g8
I4
sg9
I363
sg10
I11
sg11
I-1
sg12
I536
sg13
g2167
sa(dp3820
g8
I4
sg9
I319
sg10
I13
sg11
I-1
sg12
I537
sg13
g2171
sa(dp3821
g8
I4
sg9
I324
sg10
I15
sg11
I-1
sg12
I538
sg13
g2175
sa(dp3822
g8
I5
sg9
I396
sg10
I0
sg11
I-1
sg12
I539
sg13
g2179
sa(dp3823
g8
I5
sg9
I349
sg10
I2
sg11
I-1
sg12
I540
sg13
g2183
sa(dp3824
g8
I5
sg9
I322
sg10
I4
sg11
I-1
sg12
I541
sg13
g2187
sa(dp3825
g8
I5
sg9
I361
sg10
I6
sg11
I-1
sg12
I542
sg13
g2191
sa(dp3826
g8
I5
sg9
I362
sg10
I7
sg11
I-1
sg12
I543
sg13
g2195
sa(dp3827
g8
I5
sg9
I375
sg10
I8
sg11
I-1
sg12
I544
sg13
g2199
sa(dp3828
g8
I5
sg9
I396
sg10
I10
sg11
I-1
sg12
I545
sg13
g2203
sa(dp3829
g8
I5
sg9
I340
sg10
I11
sg11
I-1
sg12
I546
sg13
g2207
sa(dp3830
g8
I5
sg9
I304
sg10
I12
sg11
I-1
sg12
I547
sg13
g2211
sa(dp3831
g8
I6
sg9
I368
sg10
I1
sg11
I-1
sg12
I548
sg13
g2215
sa(dp3832
g8
I6
sg9
I368
sg10
I2
sg11
I-1
sg12
I549
sg13
g2219
sa(dp3833
g8
I6
sg9
I373
sg10
I3
sg11
I-1
sg12
I550
sg13
g2223
sa(dp3834
g8
I6
sg9
I321
sg10
I5
sg11
I987
sg12
I551
sg13
g2227
sa(dp3835
g8
I6
sg9
I352
sg10
I7
sg11
I-1
sg12
I552
sg13
g2231
sa(dp3836
g8
I6
sg9
I357
sg10
I9
sg11
I3092
sg12
I553
sg13
g2235
sa(dp3837
g8
I6
sg9
I347
sg10
I11
sg11
I-1
sg12
I554
sg13
g2239
sa(dp3838
g8
I6
sg9
I334
sg10
I13
sg11
I-1
sg12
I555
sg13
g2243
sa(dp3839
g8
I6
sg9
I371
sg10
I14
sg11
I-1
sg12
I556
sg13
g2247
sa(dp3840
g8
I7
sg9
I321
sg10
I0
sg11
I-1
sg12
I557
sg13
g2251
sa(dp3841
g8
I7
sg9
I386
sg10
I2
sg11
I-1
sg12
I558
sg13
g2255
sa(dp3842
g8
I7
sg9
I326
sg10
I3
sg11
I-1
sg12
I559
sg13
g2259
sa(dp3843
g8
I7
sg9
I320
sg10
I4
sg11
I-1
sg12
I560
sg13
g2263
sa(dp3844
g8
I7
sg9
I335
sg10
I5
sg11
I-1
sg12
I561
sg13
g2267
sa(dp3845
g8
I7
sg9
I396
sg10
I7
sg11
I-1
sg12
I562
sg13
g2271
sa(dp3846
g8
I7
sg9
I307
sg10
I8
sg11
I-1
sg12
I563
sg13
g2275
sa(dp3847
g8
I7
sg9
I356
sg10
I9
sg11
I-1
sg12
I564
sg13
g2279
sa(dp3848
g8
I7
sg9
I379
sg10
I10
sg11
I-1
sg12
I565
sg13
g2283
sa(dp3849
g8
I7
sg9
I326
sg10
I12
sg11
I-1
sg12
I566
sg13
g2287
sa(dp3850
g8
I7
sg9
I346
sg10
I14
sg11
I-1
sg12
I567
sg13
g2291
sa(dp3851
g8
I8
sg9
I303
sg10
I4
sg11
I-1
sg12
I568
sg13
g2295
sa(dp3852
g8
I8
sg9
I397
sg10
I5
sg11
I-1
sg12
I569
sg13
g2299
sa(dp3853
g8
I8
sg9
I398
sg10
I6
sg11
I-1
sg12
I570
sg13
g2303
sa(dp3854
g8
I8
sg9
I303
sg10
I7
sg11
I-1
sg12
I571
sg13
g2307
sa(dp3855
g8
I8
sg9
I341
sg10
I8
sg11
I-1
sg12
I572
sg13
g2311
sa(dp3856
g8
I8
sg9
I341
sg10
I9
sg11
I-1
sg12
I573
sg13
g2315
sa(dp3857
g8
I8
sg9
I312
sg10
I10
sg11
I-1
sg12
I574
sg13
g2319
sa(dp3858
g8
I8
sg9
I377
sg10
I14
sg11
I4293
sg12
I575
sg13
g2323
sa(dp3859
g8
I9
sg9
I314
sg10
I1
sg11
I-1
sg12
I576
sg13
g2327
sa(dp3860
g8
I9
sg9
I390
sg10
I2
sg11
I-1
sg12
I577
sg13
g2331
sa(dp3861
g8
I9
sg9
I334
sg10
I4
sg11
I-1
sg12
I578
sg13
g2335
sa(dp3862
g8
I9
sg9
I334
sg10
I5
sg11
I-1
sg12
I579
sg13
g2339
sa(dp3863
g8
I9
sg9
I389
sg10
I6
sg11
I-1
sg12
I580
sg13
g2343
sa(dp3864
g8
I9
sg9
I351
sg10
I7
sg11
I-1
sg12
I581
sg13
g2347
sa(dp3865
g8
I9
sg9
I342
sg10
I8
sg11
I-1
sg12
I582
sg13
g2351
sa(dp3866
g8
I9
sg9
I366
sg10
I9
sg11
I3682
sg12
I583
sg13
g2355
sa(dp3867
g8
I9
sg9
I347
sg10
I10
sg11
I-1
sg12
I584
sg13
g2359
sa(dp3868
g8
I9
sg9
I347
sg10
I11
sg11
I-1
sg12
I585
sg13
g2363
sa(dp3869
g8
I9
sg9
I350
sg10
I13
sg11
I-1
sg12
I586
sg13
g2367
sa(dp3870
g8
I9
sg9
I334
sg10
I14
sg11
I-1
sg12
I587
sg13
g2371
sa(dp3871
g8
I10
sg9
I306
sg10
I1
sg11
I-1
sg12
I588
sg13
g2375
sa(dp3872
g8
I10
sg9
I359
sg10
I2
sg11
I-1
sg12
I589
sg13
g2379
sa(dp3873
g8
I10
sg9
I305
sg10
I4
sg11
I97
sg12
I590
sg13
g2383
sa(dp3874
g8
I10
sg9
I366
sg10
I7
sg11
I-1
sg12
I591
sg13
g2387
sa(dp3875
g8
I10
sg9
I302
sg10
I8
sg11
I5518
sg12
I592
sg13
g2391
sa(dp3876
g8
I10
sg9
I312
sg10
I10
sg11
I-1
sg12
I593
sg13
g2395
sa(dp3877
g8
I10
sg9
I349
sg10
I11
sg11
I-1
sg12
I594
sg13
g2399
sa(dp3878
g8
I10
sg9
I349
sg10
I12
sg11
I-1
sg12
I595
sg13
g2403
sa(dp3879
g8
I10
sg9
I357
sg10
I13
sg11
I-1
sg12
I596
sg13
g2407
sa(dp3880
g8
I10
sg9
I386
sg10
I14
sg11
I-1
sg12
I597
sg13
g2411
sa(dp3881
g8
I11
sg9
I392
sg10
I0
sg11
I-1
sg12
I598
sg13
g2415
sa(dp3882
g8
I11
sg9
I354
sg10
I2
sg11
I-1
sg12
I599
sg13
g2419
sa(dp3883
g8
I11
sg9
I339
sg10
I3
sg11
I-1
sg12
I600
sg13
g2423
sa(dp3884
g8
I11
sg9
I366
sg10
I4
sg11
I-1
sg12
I601
sg13
g2427
sa(dp3885
g8
I11
sg9
I327
sg10
I5
sg11
I-1
sg12
I602
sg13
g2431
sa(dp3886
g8
I11
sg9
I350
sg10
I6
sg11
I-1
sg12
I603
sg13
g2435
sa(dp3887
g8
I11
sg9
I319
sg10
I8
sg11
I-1
sg12
I604
sg13
g2439
sa(dp3888
g8
I11
sg9
I372
sg10
I10
sg11
I-1
sg12
I605
sg13
g2443
sa(dp3889
g8
I11
sg9
I313
sg10
I11
sg11
I-1
sg12
I606
sg13
g2447
sa(dp3890
g8
I11
sg9
I361
sg10
I12
sg11
I-1
sg12
I607
sg13
g2451
sa(dp3891
g8
I11
sg9
I333
sg10
I13
sg11
I-1
sg12
I608
sg13
g2455
sa(dp3892
g8
I11
sg9
I324
sg10
I15
sg11
I-1
sg12
I609
sg13
g2459
sa(dp3893
g8
I12
sg9
I349
sg10
I0
sg11
I-1
sg12
I610
sg13
g2463
sa(dp3894
g8
I12
sg9
I324
sg10
I3
sg11
I-1
sg12
I611
sg13
g2467
sa(dp3895
g8
I12
sg9
I305
sg10
I5
sg11
I105
sg12
I612
sg13
g2471
sa(dp3896
g8
I12
sg9
I384
sg10
I7
sg11
I-1
sg12
I613
sg13
g2475
sa(dp3897
g8
I12
sg9
I397
sg10
I9
sg11
I-1
sg12
I614
sg13
g2479
sa(dp3898
g8
I12
sg9
I377
sg10
I10
sg11
I-1
sg12
I615
sg13
g2483
sa(dp3899
g8
I12
sg9
I385
sg10
I11
sg11
I-1
sg12
I616
sg13
g2487
sa(dp3900
g8
I12
sg9
I350
sg10
I12
sg11
I-1
sg12
I617
sg13
g2491
sa(dp3901
g8
I12
sg9
I369
sg10
I13
sg11
I-1
sg12
I618
sg13
g2495
sa(dp3902
g8
I12
sg9
I301
sg10
I14
sg11
I-1
sg12
I619
sg13
g2499
sa(dp3903
g8
I12
sg9
I318
sg10
I15
sg11
I-1
sg12
I620
sg13
g2503
sa(dp3904
g8
I13
sg9
I334
sg10
I1
sg11
I-1
sg12
I621
sg13
g2507
sa(dp3905
g8
I13
sg9
I392
sg10
I2
sg11
I-1
sg12
I622
sg13
g2511
sa(dp3906
g8
I13
sg9
I386
sg10
I3
sg11
I-1
sg12
I623
sg13
g2515
sa(dp3907
g8
I13
sg9
I347
sg10
I4
sg11
I2503
sg12
I624
sg13
g2519
sa(dp3908
g8
I13
sg9
I377
sg10
I5
sg11
I-1
sg12
I625
sg13
g2523
sa(dp3909
g8
I13
sg9
I388
sg10
I6
sg11
I-1
sg12
I626
sg13
g2527
sa(dp3910
g8
I13
sg9
I380
sg10
I8
sg11
I-1
sg12
I627
sg13
g2531
sa(dp3911
g8
I13
sg9
I302
sg10
I9
sg11
I-1
sg12
I628
sg13
g2535
sa(dp3912
g8
I13
sg9
I344
sg10
I10
sg11
I-1
sg12
I629
sg13
g2539
sa(dp3913
g8
I13
sg9
I388
sg10
I12
sg11
I-1
sg12
I630
sg13
g2543
sa(dp3914
g8
I13
sg9
I338
sg10
I14
sg11
I-1
sg12
I631
sg13
g2547
sa(dp3915
g8
I13
sg9
I326
sg10
I15
sg11
I-1
sg12
I632
sg13
g2551
sa(dp3916
g8
I14
sg9
I357
sg10
I0
sg11
I-1
sg12
I633
sg13
g2555
sa(dp3917
g8
I14
sg9
I304
sg10
I1
sg11
I-1
sg12
I634
sg13
g2559
sa(dp3918
g8
I14
sg9
I399
sg10
I4
sg11
I-1
sg12
I635
sg13
g2563
sa(dp3919
g8
I14
sg9
I309
sg10
I5
sg11
I-1
sg12
I636
sg13
g2567
sa(dp3920
g8
I14
sg9
I357
sg10
I6
sg11
I-1
sg12
I637
sg13
g2571
sa(dp3921
g8
I14
sg9
I347
sg10
I9
sg11
I-1
sg12
I638
sg13
g2575
sa(dp3922
g8
I14
sg9
I331
sg10
I12
sg11
I-1
sg12
I639
sg13
g2579
sa(dp3923
g8
I14
sg9
I303
sg10
I13
sg11
I-1
sg12
I640
sg13
g2583
sa(dp3924
g8
I14
sg9
I383
sg10
I15
sg11
I-1
sg12
I641
sg13
g2587
sa(dp3925
g8
I15
sg9
I348
sg10
I0
sg11
I1259
sg12
I642
sg13
g2591
sa(dp3926
g8
I15
sg9
I379
sg10
I1
sg11
I1441
sg12
I643
sg13
g2595
sa(dp3927
g8
I15
sg9
I303
sg10
I3
sg11
I1542
sg12
I644
sg13
g2599
sa(dp3928
g8
I15
sg9
I387
sg10
I6
sg11
I1493
sg12
I645
sg13
g2603
sa(dp3929
g8
I15
sg9
I368
sg10
I8
sg11
I1523
sg12
I646
sg13
g2607
sa(dp3930
g8
I15
sg9
I383
sg10
I9
sg11
I1544
sg12
I647
sg13
g2611
sa(dp3931
g8
I15
sg9
I320
sg10
I11
sg11
I1655
sg12
I648
sg13
g2615
sa(dp3932
g8
I15
sg9
I319
sg10
I13
sg11
I1670
sg12
I649
sg13
g2619
sa(dp3933
g8
I15
sg9
I374
sg10
I14
sg11
I1661
sg12
I650
sg13
g2623
sa(dp3934
g8
I15
sg9
I380
sg10
I15
sg11
I1743
sg12
I651
sg13
g2627
sa(dp3935
g8
I0
sg9
I426
sg10
I0
sg11
I-1
sg12
I652
sg13
g2631
sa(dp3936
g8
I0
sg9
I444
sg10
I2
sg11
I-1
sg12
I653
sg13
g2635
sa(dp3937
g8
I0
sg9
I479
sg10
I3
sg11
I4397
sg12
I654
sg13
g2639
sa(dp3938
g8
I0
sg9
I467
sg10
I6
sg11
I-1
sg12
I655
sg13
g2643
sa(dp3939
g8
I0
sg9
I450
sg10
I8
sg11
I-1
sg12
I656
sg13
g2647
sa(dp3940
g8
I0
sg9
I401
sg10
I9
sg11
I-1
sg12
I657
sg13
g2651
sa(dp3941
g8
I0
sg9
I426
sg10
I12
sg11
I-1
sg12
I658
sg13
g2655
sa(dp3942
g8
I0
sg9
I411
sg10
I15
sg11
I-1
sg12
I659
sg13
g2659
sa(dp3943
g8
I1
sg9
I437
sg10
I0
sg11
I-1
sg12
I660
sg13
g2663
sa(dp3944
g8
I1
sg9
I416
sg10
I1
sg11
I-1
sg12
I661
sg13
g2667
sa(dp3945
g8
I1
sg9
I445
sg10
I2
sg11
I2408
sg12
I662
sg13
g2671
sa(dp3946
g8
I1
sg9
I478
sg10
I3
sg11
I-1
sg12
I663
sg13
g2675
sa(dp3947
g8
I1
sg9
I453
sg10
I4
sg11
I-1
sg12
I664
sg13
g2679
sa(dp3948
g8
I1
sg9
I411
sg10
I5
sg11
I-1
sg12
I665
sg13
g2683
sa(dp3949
g8
I1
sg9
I413
sg10
I8
sg11
I-1
sg12
I666
sg13
g2687
sa(dp3950
g8
I1
sg9
I497
sg10
I10
sg11
I5107
sg12
I667
sg13
g2691
sa(dp3951
g8
I1
sg9
I480
sg10
I11
sg11
I-1
sg12
I668
sg13
g2695
sa(dp3952
g8
I1
sg9
I475
sg10
I12
sg11
I4164
sg12
I669
sg13
g2699
sa(dp3953
g8
I1
sg9
I477
sg10
I13
sg11
I-1
sg12
I670
sg13
g2703
sa(dp3954
g8
I1
sg9
I472
sg10
I15
sg11
I-1
sg12
I671
sg13
g2707
sa(dp3955
g8
I2
sg9
I484
sg10
I1
sg11
I-1
sg12
I672
sg13
g2711
sa(dp3956
g8
I2
sg9
I405
sg10
I2
sg11
I-1
sg12
I673
sg13
g2715
sa(dp3957
g8
I2
sg9
I406
sg10
I3
sg11
I-1
sg12
I674
sg13
g2719
sa(dp3958
g8
I2
sg9
I447
sg10
I6
sg11
I-1
sg12
I675
sg13
g2723
sa(dp3959
g8
I2
sg9
I404
sg10
I7
sg11
I5362
sg12
I676
sg13
g2727
sa(dp3960
g8
I2
sg9
I425
sg10
I9
sg11
I-1
sg12
I677
sg13
g2731
sa(dp3961
g8
I2
sg9
I416
sg10
I10
sg11
I-1
sg12
I678
sg13
g2735
sa(dp3962
g8
I2
sg9
I460
sg10
I12
sg11
I-1
sg12
I679
sg13
g2739
sa(dp3963
g8
I2
sg9
I499
sg10
I14
sg11
I-1
sg12
I680
sg13
g2743
sa(dp3964
g8
I2
sg9
I470
sg10
I15
sg11
I-1
sg12
I681
sg13
g2747
sa(dp3965
g8
I3
sg9
I428
sg10
I0
sg11
I-1
sg12
I682
sg13
g2751
sa(dp3966
g8
I3
sg9
I432
sg10
I1
sg11
I-1
sg12
I683
sg13
g2755
sa(dp3967
g8
I3
sg9
I409
sg10
I2
sg11
I-1
sg12
I684
sg13
g2759
sa(dp3968
g8
I3
sg9
I475
sg10
I6
sg11
I-1
sg12
I685
sg13
g2763
sa(dp3969
g8
I3
sg9
I433
sg10
I7
sg11
I1808
sg12
I686
sg13
g2767
sa(dp3970
g8
I3
sg9
I498
sg10
I8
sg11
I-1
sg12
I687
sg13
g2771
sa(dp3971
g8
I3
sg9
I452
sg10
I9
sg11
I2785
sg12
I688
sg13
g2775
sa(dp3972
g8
I3
sg9
I473
sg10
I10
sg11
I-1
sg12
I689
sg13
g2779
sa(dp3973
g8
I3
sg9
I402
sg10
I11
sg11
I5380
sg12
I690
sg13
g2783
sa(dp3974
g8
I3
sg9
I446
sg10
I12
sg11
I-1
sg12
I691
sg13
g2787
sa(dp3975
g8
I3
sg9
I437
sg10
I13
sg11
I-1
sg12
I692
sg13
g2791
sa(dp3976
g8
I4
sg9
I466
sg10
I1
sg11
I-1
sg12
I693
sg13
g2795
sa(dp3977
g8
I4
sg9
I498
sg10
I2
sg11
I-1
sg12
I694
sg13
g2799
sa(dp3978
g8
I4
sg9
I464
sg10
I4
sg11
I-1
sg12
I695
sg13
g2803
sa(dp3979
g8
I4
sg9
I448
sg10
I5
sg11
I2599
sg12
I696
sg13
g2807
sa(dp3980
g8
I4
sg9
I432
sg10
I7
sg11
I-1
sg12
I697
sg13
g2811
sa(dp3981
g8
I4
sg9
I424
sg10
I9
sg11
I-1
sg12
I698
sg13
g2815
sa(dp3982
g8
I4
sg9
I463
sg10
I11
sg11
I-1
sg12
I699
sg13
g2819
sa(dp3983
g8
I4
sg9
I419
sg10
I13
sg11
I-1
sg12
I700
sg13
g2823
sa(dp3984
g8
I4
sg9
I424
sg10
I15
sg11
I-1
sg12
I701
sg13
g2827
sa(dp3985
g8
I5
sg9
I496
sg10
I0
sg11
I-1
sg12
I702
sg13
g2831
sa(dp3986
g8
I5
sg9
I449
sg10
I2
sg11
I-1
sg12
I703
sg13
g2835
sa(dp3987
g8
I5
sg9
I422
sg10
I4
sg11
I-1
sg12
I704
sg13
g2839
sa(dp3988
g8
I5
sg9
I461
sg10
I6
sg11
I-1
sg12
I705
sg13
g2843
sa(dp3989
g8
I5
sg9
I462
sg10
I7
sg11
I-1
sg12
I706
sg13
g2847
sa(dp3990
g8
I5
sg9
I475
sg10
I8
sg11
I-1
sg12
I707
sg13
g2851
sa(dp3991
g8
I5
sg9
I496
sg10
I10
sg11
I-1
sg12
I708
sg13
g2855
sa(dp3992
g8
I5
sg9
I440
sg10
I11
sg11
I-1
sg12
I709
sg13
g2859
sa(dp3993
g8
I5
sg9
I404
sg10
I12
sg11
I-1
sg12
I710
sg13
g2863
sa(dp3994
g8
I6
sg9
I468
sg10
I1
sg11
I-1
sg12
I711
sg13
g2867
sa(dp3995
g8
I6
sg9
I468
sg10
I2
sg11
I-1
sg12
I712
sg13
g2871
sa(dp3996
g8
I6
sg9
I473
sg10
I3
sg11
I-1
sg12
I713
sg13
g2875
sa(dp3997
g8
I6
sg9
I421
sg10
I5
sg11
I889
sg12
I714
sg13
g2879
sa(dp3998
g8
I6
sg9
I452
sg10
I7
sg11
I-1
sg12
I715
sg13
g2883
sa(dp3999
g8
I6
sg9
I457
sg10
I9
sg11
I2993
sg12
I716
sg13
g2887
sa(dp4000
g8
I6
sg9
I447
sg10
I11
sg11
I-1
sg12
I717
sg13
g2891
sa(dp4001
g8
I6
sg9
I434
sg10
I13
sg11
I-1
sg12
I718
sg13
g2895
sa(dp4002
g8
I6
sg9
I471
sg10
I14
sg11
I-1
sg12
I719
sg13
g2899
sa(dp4003
g8
I7
sg9
I421
sg10
I0
sg11
I-1
sg12
I720
sg13
g2903
sa(dp4004
g8
I7
sg9
I486
sg10
I2
sg11
I-1
sg12
I721
sg13
g2907
sa(dp4005
g8
I7
sg9
I426
sg10
I3
sg11
I-1
sg12
I722
sg13
g2911
sa(dp4006
g8
I7
sg9
I420
sg10
I4
sg11
I-1
sg12
I723
sg13
g2915
sa(dp4007
g8
I7
sg9
I435
sg10
I5
sg11
I-1
sg12
I724
sg13
g2919
sa(dp4008
g8
I7
sg9
I496
sg10
I7
sg11
I-1
sg12
I725
sg13
g2923
sa(dp4009
g8
I7
sg9
I407
sg10
I8
sg11
I-1
sg12
I726
sg13
g2927
sa(dp4010
g8
I7
sg9
I456
sg10
I9
sg11
I-1
sg12
I727
sg13
g2931
sa(dp4011
g8
I7
sg9
I479
sg10
I10
sg11
I-1
sg12
I728
sg13
g2935
sa(dp4012
g8
I7
sg9
I426
sg10
I12
sg11
I-1
sg12
I729
sg13
g2939
sa(dp4013
g8
I7
sg9
I446
sg10
I14
sg11
I-1
sg12
I730
sg13
g2943
sa(dp4014
g8
I8
sg9
I403
sg10
I4
sg11
I-1
sg12
I731
sg13
g2947
sa(dp4015
g8
I8
sg9
I497
sg10
I5
sg11
I-1
sg12
I732
sg13
g2951
sa(dp4016
g8
I8
sg9
I498
sg10
I6
sg11
I-1
sg12
I733
sg13
g2955
sa(dp4017
g8
I8
sg9
I403
sg10
I7
sg11
I-1
sg12
I734
sg13
g2959
sa(dp4018
g8
I8
sg9
I441
sg10
I8
sg11
I-1
sg12
I735
sg13
g2963
sa(dp4019
g8
I8
sg9
I441
sg10
I9
sg11
I-1
sg12
I736
sg13
g2967
sa(dp4020
g8
I8
sg9
I412
sg10
I10
sg11
I-1
sg12
I737
sg13
g2971
sa(dp4021
g8
I8
sg9
I477
sg10
I14
sg11
I4194
sg12
I738
sg13
g2975
sa(dp4022
g8
I9
sg9
I414
sg10
I1
sg11
I-1
sg12
I739
sg13
g2979
sa(dp4023
g8
I9
sg9
I490
sg10
I2
sg11
I-1
sg12
I740
sg13
g2983
sa(dp4024
g8
I9
sg9
I434
sg10
I4
sg11
I-1
sg12
I741
sg13
g2987
sa(dp4025
g8
I9
sg9
I434
sg10
I5
sg11
I-1
sg12
I742
sg13
g2991
sa(dp4026
g8
I9
sg9
I489
sg10
I6
sg11
I-1
sg12
I743
sg13
g2995
sa(dp4027
g8
I9
sg9
I451
sg10
I7
sg11
I-1
sg12
I744
sg13
g2999
sa(dp4028
g8
I9
sg9
I442
sg10
I8
sg11
I-1
sg12
I745
sg13
g3003
sa(dp4029
g8
I9
sg9
I466
sg10
I9
sg11
I3583
sg12
I746
sg13
g3007
sa(dp4030
g8
I9
sg9
I447
sg10
I10
sg11
I-1
sg12
I747
sg13
g3011
sa(dp4031
g8
I9
sg9
I447
sg10
I11
sg11
I-1
sg12
I748
sg13
g3015
sa(dp4032
g8
I9
sg9
I450
sg10
I13
sg11
I-1
sg12
I749
sg13
g3019
sa(dp4033
g8
I9
sg9
I434
sg10
I14
sg11
I-1
sg12
I750
sg13
g3023
sa(dp4034
g8
I10
sg9
I406
sg10
I1
sg11
I-1
sg12
I751
sg13
g3027
sa(dp4035
g8
I10
sg9
I459
sg10
I2
sg11
I-1
sg12
I752
sg13
g3031
sa(dp4036
g8
I10
sg9
I405
sg10
I4
sg11
I0
sg12
I753
sg13
g3035
sa(dp4037
g8
I10
sg9
I466
sg10
I7
sg11
I-1
sg12
I754
sg13
g3039
sa(dp4038
g8
I10
sg9
I402
sg10
I8
sg11
I5422
sg12
I755
sg13
g3043
sa(dp4039
g8
I10
sg9
I412
sg10
I10
sg11
I-1
sg12
I756
sg13
g3047
sa(dp4040
g8
I10
sg9
I449
sg10
I11
sg11
I-1
sg12
I757
sg13
g3051
sa(dp4041
g8
I10
sg9
I449
sg10
I12
sg11
I-1
sg12
I758
sg13
g3055
sa(dp4042
g8
I10
sg9
I457
sg10
I13
sg11
I-1
sg12
I759
sg13
g3059
sa(dp4043
g8
I10
sg9
I486
sg10
I14
sg11
I-1
sg12
I760
sg13
g3063
sa(dp4044
g8
I11
sg9
I492
sg10
I0
sg11
I-1
sg12
I761
sg13
g3067
sa(dp4045
g8
I11
sg9
I454
sg10
I2
sg11
I-1
sg12
I762
sg13
g3071
sa(dp4046
g8
I11
sg9
I439
sg10
I3
sg11
I-1
sg12
I763
sg13
g3075
sa(dp4047
g8
I11
sg9
I466
sg10
I4
sg11
I-1
sg12
I764
sg13
g3079
sa(dp4048
g8
I11
sg9
I427
sg10
I5
sg11
I-1
sg12
I765
sg13
g3083
sa(dp4049
g8
I11
sg9
I450
sg10
I6
sg11
I-1
sg12
I766
sg13
g3087
sa(dp4050
g8
I11
sg9
I419
sg10
I8
sg11
I-1
sg12
I767
sg13
g3091
sa(dp4051
g8
I11
sg9
I472
sg10
I10
sg11
I-1
sg12
I768
sg13
g3095
sa(dp4052
g8
I11
sg9
I413
sg10
I11
sg11
I-1
sg12
I769
sg13
g3099
sa(dp4053
g8
I11
sg9
I461
sg10
I12
sg11
I-1
sg12
I770
sg13
g3103
sa(dp4054
g8
I11
sg9
I433
sg10
I13
sg11
I-1
sg12
I771
sg13
g3107
sa(dp4055
g8
I11
sg9
I424
sg10
I15
sg11
I-1
sg12
I772
sg13
g3111
sa(dp4056
g8
I12
sg9
I449
sg10
I0
sg11
I-1
sg12
I773
sg13
g3115
sa(dp4057
g8
I12
sg9
I424
sg10
I3
sg11
I-1
sg12
I774
sg13
g3119
sa(dp4058
g8
I12
sg9
I405
sg10
I5
sg11
I5406
sg12
I775
sg13
g3123
sa(dp4059
g8
I12
sg9
I484
sg10
I7
sg11
I-1
sg12
I776
sg13
g3127
sa(dp4060
g8
I12
sg9
I497
sg10
I9
sg11
I-1
sg12
I777
sg13
g3131
sa(dp4061
g8
I12
sg9
I477
sg10
I10
sg11
I-1
sg12
I778
sg13
g3135
sa(dp4062
g8
I12
sg9
I485
sg10
I11
sg11
I-1
sg12
I779
sg13
g3139
sa(dp4063
g8
I12
sg9
I450
sg10
I12
sg11
I-1
sg12
I780
sg13
g3143
sa(dp4064
g8
I12
sg9
I469
sg10
I13
sg11
I-1
sg12
I781
sg13
g3147
sa(dp4065
g8
I12
sg9
I401
sg10
I14
sg11
I-1
sg12
I782
sg13
g3151
sa(dp4066
g8
I12
sg9
I418
sg10
I15
sg11
I-1
sg12
I783
sg13
g3155
sa(dp4067
g8
I13
sg9
I434
sg10
I1
sg11
I-1
sg12
I784
sg13
g3159
sa(dp4068
g8
I13
sg9
I492
sg10
I2
sg11
I-1
sg12
I785
sg13
g3163
sa(dp4069
g8
I13
sg9
I486
sg10
I3
sg11
I-1
sg12
I786
sg13
g3167
sa(dp4070
g8
I13
sg9
I447
sg10
I4
sg11
I2411
sg12
I787
sg13
g3171
sa(dp4071
g8
I13
sg9
I477
sg10
I5
sg11
I-1
sg12
I788
sg13
g3175
sa(dp4072
g8
I13
sg9
I488
sg10
I6
sg11
I-1
sg12
I789
sg13
g3179
sa(dp4073
g8
I13
sg9
I480
sg10
I8
sg11
I-1
sg12
I790
sg13
g3183
sa(dp4074
g8
I13
sg9
I402
sg10
I9
sg11
I-1
sg12
I791
sg13
g3187
sa(dp4075
g8
I13
sg9
I444
sg10
I10
sg11
I-1
sg12
I792
sg13
g3191
sa(dp4076
g8
I13
sg9
I488
sg10
I12
sg11
I-1
sg12
I793
sg13
g3195
sa(dp4077
g8
I13
sg9
I438
sg10
I14
sg11
I-1
sg12
I794
sg13
g3199
sa(dp4078
g8
I13
sg9
I426
sg10
I15
sg11
I-1
sg12
I795
sg13
g3203
sa(dp4079
g8
I14
sg9
I457
sg10
I0
sg11
I-1
sg12
I796
sg13
g3207
sa(dp4080
g8
I14
sg9
I404
sg10
I1
sg11
I-1
sg12
I797
sg13
g3211
sa(dp4081
g8
I14
sg9
I499
sg10
I4
sg11
I-1
sg12
I798
sg13
g3215
sa(dp4082
g8
I14
sg9
I409
sg10
I5
sg11
I-1
sg12
I799
sg13
g3219
sa(dp4083
g8
I14
sg9
I457
sg10
I6
sg11
I-1
sg12
I800
sg13
g3223
sa(dp4084
g8
I14
sg9
I447
sg10
I9
sg11
I-1
sg12
I801
sg13
g3227
sa(dp4085
g8
I14
sg9
I431
sg10
I12
sg11
I-1
sg12
I802
sg13
g3231
sa(dp4086
g8
I14
sg9
I403
sg10
I13
sg11
I-1
sg12
I803
sg13
g3235
sa(dp4087
g8
I14
sg9
I483
sg10
I15
sg11
I-1
sg12
I804
sg13
g3239
sa(dp4088
g8
I15
sg9
I448
sg10
I0
sg11
I1690
sg12
I805
sg13
g3243
sa(dp4089
g8
I15
sg9
I479
sg10
I1
sg11
I1937
sg12
I806
sg13
g3247
sa(dp4090
g8
I15
sg9
I403
sg10
I3
sg11
I1802
sg12
I807
sg13
g3251
sa(dp4091
g8
I15
sg9
I487
sg10
I6
sg11
I1974
sg12
I808
sg13
g3255
sa(dp4092
g8
I15
sg9
I468
sg10
I8
sg11
I2029
sg12
I809
sg13
g3259
sa(dp4093
g8
I15
sg9
I483
sg10
I9
sg11
I2025
sg12
I810
sg13
g3263
sa(dp4094
g8
I15
sg9
I420
sg10
I11
sg11
I2183
sg12
I811
sg13
g3267
sa(dp4095
g8
I15
sg9
I419
sg10
I13
sg11
I2103
sg12
I812
sg13
g3271
sa(dp4096
g8
I15
sg9
I474
sg10
I14
sg11
I2142
sg12
I813
sg13
g3275
sa(dp4097
g8
I15
sg9
I480
sg10
I15
sg11
I2249
sg12
I814
sg13
g3279
sassa.