(dp0
S'baseline'
p1
(dp2
S'flow_number'
p3
I0
sS'flow_stats'
p4
(lp5
(dp6
S'src'
p7
I0
sS'timestamp'
p8
I46
sS'dst'
p9
I0
sS'flowCompletionTime'
p10
I3585
sS'id'
p11
I3250
sS'size'
p12
cnumpy.core.multiarray
scalar
p13
(cnumpy
dtype
p14
(S'f8'
p15
I0
I1
tp16
Rp17
(I3
S'<'
p18
NNNI-1
I-1
I0
tp19
bS'\x00\x00\x00\x00\x00\x80B@'
p20
tp21
Rp22
sa(dp23
g7
I0
sg8
I16
sg9
I1
sg10
I4701
sg11
I3251
sg12
g13
(g17
S'\x00\x00\x00\x00\x00\x00*@'
p24
tp25
Rp26
sa(dp27
g7
I0
sg8
I84
sg9
I3
sg10
I4564
sg11
I3252
sg12
g13
(g17
S'\x00\x00\x00\x00\x00@[@'
p28
tp29
Rp30
sa(dp31
g7
I0
sg8
I29
sg9
I4
sg10
I5310
sg11
I3253
sg12
g13
(g17
S'\x00\x00\x00\x00\x00\x00\x14@'
p32
tp33
Rp34
sa(dp35
g7
I0
sg8
I73
sg9
I5
sg10
I4067
sg11
I3254
sg12
g13
(g17
S'\x00\x00\x00\x00\x00\xc0Q@'
p36
tp37
Rp38
sa(dp39
g7
I0
sg8
I61
sg9
I7
sg10
I3027
sg11
I3255
sg12
g13
(g17
S'\x00\x00\x00\x00\x00@V@'
p40
tp41
Rp42
sa(dp43
g7
I0
sg8
I81
sg9
I8
sg10
I4908
sg11
I3256
sg12
g13
(g17
S'\x00\x00\x00\x00\x00\x00$@'
p44
tp45
Rp46
sa(dp47
g7
I0
sg8
I40
sg9
I10
sg10
I5220
sg11
I3257
sg12
g13
(g17
S'\x00\x00\x00\x00\x00\x00\x18@'
p48
tp49
Rp50
sa(dp51
g7
I0
sg8
I70
sg9
I13
sg10
I4780
sg11
I3258
sg12
g13
(g17
S'\x00\x00\x00\x00\x00\x000@'
p52
tp53
Rp54
sa(dp55
g7
I1
sg8
I96
sg9
I0
sg10
I2951
sg11
I3259
sg12
g13
(g17
S'\x00\x00\x00\x00\x00\x00H@'
p56
tp57
Rp58
sa(dp59
g7
I1
sg8
I56
sg9
I1
sg10
I5199
sg11
I3260
sg12
g13
(g17
S'\x00\x00\x00\x00\x00\x00\xf0?'
p60
tp61
Rp62
sa(dp63
g7
I1
sg8
I24
sg9
I2
sg10
I5510
sg11
I3261
sg12
g13
(g17
S'\x00\x00\x00\x00\x00\x00\x14@'
p64
tp65
Rp66
sa(dp67
g7
I1
sg8
I14
sg9
I3
sg10
I5848
sg11
I3262
sg12
g13
(g17
S'\x00\x00\x00\x00\x00\x00\x08@'
p68
tp69
Rp70
sa(dp71
g7
I1
sg8
I76
sg9
I4
sg10
I4920
sg11
I3263
sg12
g13
(g17
S'\x00\x00\x00\x00\x00\x001@'
p72
tp73
Rp74
sa(dp75
g7
I1
sg8
I19
sg9
I5
sg10
I4831
sg11
I3264
sg12
g13
(g17
S'\x00\x00\x00\x00\x00\x000@'
p76
tp77
Rp78
sa(dp79
g7
I1
sg8
I25
sg9
I7
sg10
I3641
sg11
I3265
sg12
g13
(g17
S'\x00\x00\x00\x00\x00\x00R@'
p80
tp81
Rp82
sa(dp83
g7
I1
sg8
I4
sg9
I10
sg10
I5333
sg11
I3266
sg12
g13
(g17
S'\x00\x00\x00\x00\x00\x00\x08@'
p84
tp85
Rp86
sa(dp87
g7
I1
sg8
I4
sg9
I11
sg10
I4588
sg11
I3267
sg12
g13
(g17
S'\x00\x00\x00\x00\x00\x80J@'
p88
tp89
Rp90
sa(dp91
g7
I1
sg8
I89
sg9
I12
sg10
I5098
sg11
I3268
sg12
g13
(g17
S'\x00\x00\x00\x00\x00\x00 @'
p92
tp93
Rp94
sa(dp95
g7
I1
sg8
I10
sg9
I14
sg10
I4091
sg11
I3269
sg12
g13
(g17
S'\x00\x00\x00\x00\x00\x00@@'
p96
tp97
Rp98
sa(dp99
g7
I1
sg8
I54
sg9
I15
sg10
I5033
sg11
I3270
sg12
g13
(g17
S'\x00\x00\x00\x00\x00\x00 @'
p100
tp101
Rp102
sa(dp103
g7
I2
sg8
I60
sg9
I0
sg10
I5299
sg11
I3271
sg12
g13
(g17
S'\x00\x00\x00\x00\x00\x009@'
p104
tp105
Rp106
sa(dp107
g7
I2
sg8
I7
sg9
I1
sg10
I5177
sg11
I3272
sg12
g13
(g17
S'\x00\x00\x00\x00\x00\x00\x14@'
p108
tp109
Rp110
sa(dp111
g7
I2
sg8
I68
sg9
I2
sg10
I5589
sg11
I3273
sg12
g13
(g17
S'\x00\x00\x00\x00\x00\x00*@'
p112
tp113
Rp114
sa(dp115
g7
I2
sg8
I55
sg9
I3
sg10
I4801
sg11
I3274
sg12
g13
(g17
S'\x00\x00\x00\x00\x00\x006@'
p116
tp117
Rp118
sa(dp119
g7
I2
sg8
I29
sg9
I5
sg10
I3064
sg11
I3275
sg12
g13
(g17
S'\x00\x00\x00\x00\x00\x80W@'
p120
tp121
Rp122
sa(dp123
g7
I2
sg8
I38
sg9
I6
sg10
I4596
sg11
I3276
sg12
g13
(g17
S'\x00\x00\x00\x00\x00\xc0W@'
p124
tp125
Rp126
sa(dp127
g7
I2
sg8
I22
sg9
I8
sg10
I5067
sg11
I3277
sg12
g13
(g17
S'\x00\x00\x00\x00\x00\x00$@'
p128
tp129
Rp130
sa(dp131
g7
I2
sg8
I16
sg9
I9
sg10
I5994
sg11
I3278
sg12
g13
(g17
S'\x00\x00\x00\x00\x00\x00\xf0?'
p132
tp133
Rp134
sa(dp135
g7
I2
sg8
I48
sg9
I10
sg10
I4074
sg11
I3279
sg12
g13
(g17
S'\x00\x00\x00\x00\x00\x80J@'
p136
tp137
Rp138
sa(dp139
g7
I2
sg8
I98
sg9
I11
sg10
I5435
sg11
I3280
sg12
g13
(g17
S'\x00\x00\x00\x00\x00\x00\x10@'
p140
tp141
Rp142
sa(dp143
g7
I2
sg8
I23
sg9
I13
sg10
I3645
sg11
I3281
sg12
g13
(g17
S'\x00\x00\x00\x00\x00\x80R@'
p144
tp145
Rp146
sa(dp147
g7
I2
sg8
I48
sg9
I14
sg10
I5396
sg11
I3282
sg12
g13
(g17
S'\x00\x00\x00\x00\x00\x00\x14@'
p148
tp149
Rp150
sa(dp151
g7
I2
sg8
I80
sg9
I15
sg10
I5185
sg11
I3283
sg12
g13
(g17
S'\x00\x00\x00\x00\x00\x00&@'
p152
tp153
Rp154
sa(dp155
g7
I3
sg8
I17
sg9
I2
sg10
I5324
sg11
I3284
sg12
g13
(g17
S'\x00\x00\x00\x00\x00\x00\x1c@'
p156
tp157
Rp158
sa(dp159
g7
I3
sg8
I13
sg9
I6
sg10
I5078
sg11
I3285
sg12
g13
(g17
S'\x00\x00\x00\x00\x00\x00(@'
p160
tp161
Rp162
sa(dp163
g7
I3
sg8
I86
sg9
I8
sg10
I3623
sg11
I3286
sg12
g13
(g17
S'\x00\x00\x00\x00\x00\xc0\\@'
p164
tp165
Rp166
sa(dp167
g7
I3
sg8
I60
sg9
I9
sg10
I4663
sg11
I3287
sg12
g13
(g17
S'\x00\x00\x00\x00\x00\x003@'
p168
tp169
Rp170
sa(dp171
g7
I3
sg8
I83
sg9
I10
sg10
I4907
sg11
I3288
sg12
g13
(g17
S'\x00\x00\x00\x00\x00\x00&@'
p172
tp173
Rp174
sa(dp175
g7
I3
sg8
I72
sg9
I11
sg10
I4786
sg11
I3289
sg12
g13
(g17
S'\x00\x00\x00\x00\x00\x008@'
p176
tp177
Rp178
sa(dp179
g7
I3
sg8
I70
sg9
I12
sg10
I4496
sg11
I3290
sg12
g13
(g17
S'\x00\x00\x00\x00\x00\x00;@'
p180
tp181
Rp182
sa(dp183
g7
I3
sg8
I24
sg9
I13
sg10
I5165
sg11
I3291
sg12
g13
(g17
S'\x00\x00\x00\x00\x00\x00$@'
p184
tp185
Rp186
sa(dp187
g7
I3
sg8
I21
sg9
I14
sg10
I5242
sg11
I3292
sg12
g13
(g17
S'\x00\x00\x00\x00\x00\x00"@'
p188
tp189
Rp190
sa(dp191
g7
I3
sg8
I8
sg9
I15
sg10
I3080
sg11
I3293
sg12
g13
(g17
S'\x00\x00\x00\x00\x00@V@'
p192
tp193
Rp194
sa(dp195
g7
I4
sg8
I43
sg9
I0
sg10
I4059
sg11
I3294
sg12
g13
(g17
S'\x00\x00\x00\x00\x00\x80@@'
p196
tp197
Rp198
sa(dp199
g7
I4
sg8
I6
sg9
I1
sg10
I4840
sg11
I3295
sg12
g13
(g17
S'\x00\x00\x00\x00\x00\x00(@'
p200
tp201
Rp202
sa(dp203
g7
I4
sg8
I18
sg9
I2
sg10
I3610
sg11
I3296
sg12
g13
(g17
S'\x00\x00\x00\x00\x00\x00A@'
p204
tp205
Rp206
sa(dp207
g7
I4
sg8
I16
sg9
I3
sg10
I4706
sg11
I3297
sg12
g13
(g17
S'\x00\x00\x00\x00\x00\x002@'
p208
tp209
Rp210
sa(dp211
g7
I4
sg8
I54
sg9
I5
sg10
I5210
sg11
I3298
sg12
g13
(g17
S'\x00\x00\x00\x00\x00\x00$@'
p212
tp213
Rp214
sa(dp215
g7
I4
sg8
I23
sg9
I8
sg10
I5164
sg11
I3299
sg12
g13
(g17
S'\x00\x00\x00\x00\x00\x00 @'
p216
tp217
Rp218
sa(dp219
g7
I4
sg8
I5
sg9
I11
sg10
I5089
sg11
I3300
sg12
g13
(g17
S'\x00\x00\x00\x00\x00\x00.@'
p220
tp221
Rp222
sa(dp223
g7
I4
sg8
I40
sg9
I12
sg10
I4948
sg11
I3301
sg12
g13
(g17
S'\x00\x00\x00\x00\x00\x00"@'
p224
tp225
Rp226
sa(dp227
g7
I4
sg8
I57
sg9
I13
sg10
I3024
sg11
I3302
sg12
g13
(g17
S'\x00\x00\x00\x00\x00\x80T@'
p228
tp229
Rp230
sa(dp231
g7
I4
sg8
I28
sg9
I14
sg10
I4527
sg11
I3303
sg12
g13
(g17
S'\x00\x00\x00\x00\x00\x000@'
p232
tp233
Rp234
sa(dp235
g7
I4
sg8
I43
sg9
I15
sg10
I5298
sg11
I3304
sg12
g13
(g17
S'\x00\x00\x00\x00\x00\x00\x1c@'
p236
tp237
Rp238
sa(dp239
g7
I5
sg8
I48
sg9
I1
sg10
I4108
sg11
I3305
sg12
g13
(g17
S'\x00\x00\x00\x00\x00\xc0U@'
p240
tp241
Rp242
sa(dp243
g7
I5
sg8
I37
sg9
I2
sg10
I5147
sg11
I3306
sg12
g13
(g17
S'\x00\x00\x00\x00\x00\x00\x14@'
p244
tp245
Rp246
sa(dp247
g7
I5
sg8
I38
sg9
I4
sg10
I5050
sg11
I3307
sg12
g13
(g17
S'\x00\x00\x00\x00\x00\x00"@'
p248
tp249
Rp250
sa(dp251
g7
I5
sg8
I10
sg9
I7
sg10
I4550
sg11
I3308
sg12
g13
(g17
S'\x00\x00\x00\x00\x00\x005@'
p252
tp253
Rp254
sa(dp255
g7
I5
sg8
I75
sg9
I9
sg10
I4864
sg11
I3309
sg12
g13
(g17
S'\x00\x00\x00\x00\x00@Z@'
p256
tp257
Rp258
sa(dp259
g7
I5
sg8
I44
sg9
I12
sg10
I3114
sg11
I3310
sg12
g13
(g17
S'\x00\x00\x00\x00\x00\xe0c@'
p260
tp261
Rp262
sa(dp263
g7
I5
sg8
I3
sg9
I13
sg10
I5253
sg11
I3311
sg12
g13
(g17
S'\x00\x00\x00\x00\x00\x00\x00@'
p264
tp265
Rp266
sa(dp267
g7
I5
sg8
I16
sg9
I14
sg10
I4703
sg11
I3312
sg12
g13
(g17
S'\x00\x00\x00\x00\x00\x00.@'
p268
tp269
Rp270
sa(dp271
g7
I6
sg8
I8
sg9
I0
sg10
I5079
sg11
I3313
sg12
g13
(g17
S'\x00\x00\x00\x00\x00\x00 @'
p272
tp273
Rp274
sa(dp275
g7
I6
sg8
I66
sg9
I2
sg10
I4108
sg11
I3314
sg12
g13
(g17
S'\x00\x00\x00\x00\x00@Z@'
p276
tp277
Rp278
sa(dp279
g7
I6
sg8
I66
sg9
I3
sg10
I3594
sg11
I3315
sg12
g13
(g17
S'\x00\x00\x00\x00\x00\x80P@'
p280
tp281
Rp282
sa(dp283
g7
I6
sg8
I58
sg9
I4
sg10
I5204
sg11
I3316
sg12
g13
(g17
S'\x00\x00\x00\x00\x00\x00 @'
p284
tp285
Rp286
sa(dp287
g7
I6
sg8
I3
sg9
I6
sg10
I5194
sg11
I3317
sg12
g13
(g17
S'\x00\x00\x00\x00\x00\x002@'
p288
tp289
Rp290
sa(dp291
g7
I6
sg8
I29
sg9
I8
sg10
I4538
sg11
I3318
sg12
g13
(g17
S'\x00\x00\x00\x00\x00\x00<@'
p292
tp293
Rp294
sa(dp295
g7
I6
sg8
I88
sg9
I9
sg10
I2963
sg11
I3319
sg12
g13
(g17
S'\x00\x00\x00\x00\x00\x00J@'
p296
tp297
Rp298
sa(dp299
g7
I6
sg8
I19
sg9
I12
sg10
I4830
sg11
I3320
sg12
g13
(g17
S'\x00\x00\x00\x00\x00\x00.@'
p300
tp301
Rp302
sa(dp303
g7
I6
sg8
I28
sg9
I13
sg10
I4964
sg11
I3321
sg12
g13
(g17
S'\x00\x00\x00\x00\x00\x00*@'
p304
tp305
Rp306
sa(dp307
g7
I6
sg8
I6
sg9
I15
sg10
I4718
sg11
I3322
sg12
g13
(g17
S'\x00\x00\x00\x00\x00\x004@'
p308
tp309
Rp310
sa(dp311
g7
I7
sg8
I51
sg9
I0
sg10
I4514
sg11
I3323
sg12
g13
(g17
S'\x00\x00\x00\x00\x00\x00:@'
p312
tp313
Rp314
sa(dp315
g7
I7
sg8
I88
sg9
I1
sg10
I5505
sg11
I3324
sg12
g13
(g17
S'\x00\x00\x00\x00\x00\x00\x10@'
p316
tp317
Rp318
sa(dp319
g7
I7
sg8
I55
sg9
I5
sg10
I5479
sg11
I3325
sg12
g13
(g17
S'\x00\x00\x00\x00\x00\x00\x14@'
p320
tp321
Rp322
sa(dp323
g7
I7
sg8
I80
sg9
I7
sg10
I4692
sg11
I3326
sg12
g13
(g17
S'\x00\x00\x00\x00\x00\x00Q@'
p324
tp325
Rp326
sa(dp327
g7
I7
sg8
I39
sg9
I8
sg10
I5222
sg11
I3327
sg12
g13
(g17
S'\x00\x00\x00\x00\x00\x00\x1c@'
p328
tp329
Rp330
sa(dp331
g7
I7
sg8
I51
sg9
I9
sg10
I5035
sg11
I3328
sg12
g13
(g17
S'\x00\x00\x00\x00\x00\x00\x1c@'
p332
tp333
Rp334
sa(dp335
g7
I7
sg8
I30
sg9
I10
sg10
I5371
sg11
I3329
sg12
g13
(g17
S'\x00\x00\x00\x00\x00\x00\x00@'
p336
tp337
Rp338
sa(dp339
g7
I7
sg8
I51
sg9
I11
sg10
I3039
sg11
I3330
sg12
g13
(g17
S'\x00\x00\x00\x00\x00\xc0V@'
p340
tp341
Rp342
sa(dp343
g7
I7
sg8
I40
sg9
I13
sg10
I5309
sg11
I3331
sg12
g13
(g17
S'\x00\x00\x00\x00\x00\x00.@'
p344
tp345
Rp346
sa(dp347
g7
I7
sg8
I9
sg9
I14
sg10
I3670
sg11
I3332
sg12
g13
(g17
S'\x00\x00\x00\x00\x00@U@'
p348
tp349
Rp350
sa(dp351
g7
I7
sg8
I4
sg9
I15
sg10
I4120
sg11
I3333
sg12
g13
(g17
S'\x00\x00\x00\x00\x00\x80K@'
p352
tp353
Rp354
sa(dp355
g7
I8
sg8
I99
sg9
I1
sg10
I2968
sg11
I3334
sg12
g13
(g17
S'\x00\x00\x00\x00\x00\x00Q@'
p356
tp357
Rp358
sa(dp359
g7
I8
sg8
I83
sg9
I3
sg10
I5177
sg11
I3335
sg12
g13
(g17
S'\x00\x00\x00\x00\x00\x00\x18@'
p360
tp361
Rp362
sa(dp363
g7
I8
sg8
I33
sg9
I4
sg10
I4109
sg11
I3336
sg12
g13
(g17
S'\x00\x00\x00\x00\x00@R@'
p364
tp365
Rp366
sa(dp367
g7
I8
sg8
I30
sg9
I5
sg10
I4687
sg11
I3337
sg12
g13
(g17
S'\x00\x00\x00\x00\x00\x00*@'
p368
tp369
Rp370
sa(dp371
g7
I8
sg8
I59
sg9
I6
sg10
I5593
sg11
I3338
sg12
g13
(g17
S'\x00\x00\x00\x00\x00\x00 @'
p372
tp373
Rp374
sa(dp375
g7
I8
sg8
I39
sg9
I7
sg10
I5054
sg11
I3339
sg12
g13
(g17
S'\x00\x00\x00\x00\x00\x00,@'
p376
tp377
Rp378
sa(dp379
g7
I8
sg8
I64
sg9
I8
sg10
I5277
sg11
I3340
sg12
g13
(g17
S'\x00\x00\x00\x00\x00\x00\x1c@'
p380
tp381
Rp382
sa(dp383
g7
I8
sg8
I97
sg9
I11
sg10
I5092
sg11
I3341
sg12
g13
(g17
S'\x00\x00\x00\x00\x00\x00$@'
p384
tp385
Rp386
sa(dp387
g7
I8
sg8
I89
sg9
I13
sg10
I5319
sg11
I3342
sg12
g13
(g17
S'\x00\x00\x00\x00\x00\x00"@'
p388
tp389
Rp390
sa(dp391
g7
I8
sg8
I77
sg9
I14
sg10
I4914
sg11
I3343
sg12
g13
(g17
S'\x00\x00\x00\x00\x00\x00(@'
p392
tp393
Rp394
sa(dp395
g7
I8
sg8
I53
sg9
I15
sg10
I3703
sg11
I3344
sg12
g13
(g17
S'\x00\x00\x00\x00\x00@d@'
p396
tp397
Rp398
sa(dp399
g7
I9
sg8
I3
sg9
I3
sg10
I4103
sg11
I3345
sg12
g13
(g17
S'\x00\x00\x00\x00\x00\x80B@'
p400
tp401
Rp402
sa(dp403
g7
I9
sg8
I90
sg9
I4
sg10
I4681
sg11
I3346
sg12
g13
(g17
S'\x00\x00\x00\x00\x00\xc0P@'
p404
tp405
Rp406
sa(dp407
g7
I9
sg8
I22
sg9
I5
sg10
I5316
sg11
I3347
sg12
g13
(g17
S'\x00\x00\x00\x00\x00\x00\x10@'
p408
tp409
Rp410
sa(dp411
g7
I9
sg8
I96
sg9
I7
sg10
I5162
sg11
I3348
sg12
g13
(g17
S'\x00\x00\x00\x00\x00\x00\x10@'
p412
tp413
Rp414
sa(dp415
g7
I9
sg8
I69
sg9
I10
sg10
I3044
sg11
I3349
sg12
g13
(g17
S'\x00\x00\x00\x00\x00\x80\\@'
p416
tp417
Rp418
sa(dp419
g7
I9
sg8
I17
sg9
I11
sg10
I3667
sg11
I3350
sg12
g13
(g17
S'\x00\x00\x00\x00\x00\x80V@'
p420
tp421
Rp422
sa(dp423
g7
I9
sg8
I28
sg9
I12
sg10
I5060
sg11
I3351
sg12
g13
(g17
S'\x00\x00\x00\x00\x00\x00"@'
p424
tp425
Rp426
sa(dp427
g7
I9
sg8
I35
sg9
I13
sg10
I4524
sg11
I3352
sg12
g13
(g17
S'\x00\x00\x00\x00\x00\x004@'
p428
tp429
Rp430
sa(dp431
g7
I9
sg8
I64
sg9
I14
sg10
I5340
sg11
I3353
sg12
g13
(g17
S'\x00\x00\x00\x00\x00\x00\x14@'
p432
tp433
Rp434
sa(dp435
g7
I9
sg8
I37
sg9
I15
sg10
I4957
sg11
I3354
sg12
g13
(g17
S'\x00\x00\x00\x00\x00\x00.@'
p436
tp437
Rp438
sa(dp439
g7
I10
sg8
I29
sg9
I0
sg10
I4838
sg11
I3355
sg12
g13
(g17
S'\x00\x00\x00\x00\x00\x80@@'
p440
tp441
Rp442
sa(dp443
g7
I10
sg8
I34
sg9
I1
sg10
I4956
sg11
I3356
sg12
g13
(g17
S'\x00\x00\x00\x00\x00\x00&@'
p444
tp445
Rp446
sa(dp447
g7
I10
sg8
I34
sg9
I2
sg10
I4523
sg11
I3357
sg12
g13
(g17
S'\x00\x00\x00\x00\x00\x002@'
p448
tp449
Rp450
sa(dp451
g7
I10
sg8
I58
sg9
I4
sg10
I3578
sg11
I3358
sg12
g13
(g17
S'\x00\x00\x00\x00\x00\x00E@'
p452
tp453
Rp454
sa(dp455
g7
I10
sg8
I87
sg9
I5
sg10
I4999
sg11
I3359
sg12
g13
(g17
S'\x00\x00\x00\x00\x00\x00\x1c@'
p456
tp457
Rp458
sa(dp459
g7
I10
sg8
I56
sg9
I6
sg10
I5358
sg11
I3360
sg12
g13
(g17
S'\x00\x00\x00\x00\x00\x00.@'
p460
tp461
Rp462
sa(dp463
g7
I10
sg8
I94
sg9
I10
sg10
I4631
sg11
I3361
sg12
g13
(g17
S'\x00\x00\x00\x00\x00\x005@'
p464
tp465
Rp466
sa(dp467
g7
I10
sg8
I85
sg9
I11
sg10
I5170
sg11
I3362
sg12
g13
(g17
S'\x00\x00\x00\x00\x00\x00\xf0?'
p468
tp469
Rp470
sa(dp471
g7
I10
sg8
I39
sg9
I12
sg10
I4052
sg11
I3363
sg12
g13
(g17
S'\x00\x00\x00\x00\x00\x006@'
p472
tp473
Rp474
sa(dp475
g7
I10
sg8
I86
sg9
I14
sg10
I3018
sg11
I3364
sg12
g13
(g17
S'\x00\x00\x00\x00\x00@Z@'
p476
tp477
Rp478
sa(dp479
g7
I11
sg8
I60
sg9
I2
sg10
I4933
sg11
I3365
sg12
g13
(g17
S'\x00\x00\x00\x00\x00\x00,@'
p480
tp481
Rp482
sa(dp483
g7
I11
sg8
I89
sg9
I6
sg10
I2965
sg11
I3366
sg12
g13
(g17
S'\x00\x00\x00\x00\x00\x80K@'
p484
tp485
Rp486
sa(dp487
g7
I11
sg8
I73
sg9
I7
sg10
I5276
sg11
I3367
sg12
g13
(g17
S'\x00\x00\x00\x00\x00\x00.@'
p488
tp489
Rp490
sa(dp491
g7
I11
sg8
I13
sg9
I8
sg10
I4705
sg11
I3368
sg12
g13
(g17
S'\x00\x00\x00\x00\x00\x00,@'
p492
tp493
Rp494
sa(dp495
g7
I11
sg8
I30
sg9
I9
sg10
I3646
sg11
I3369
sg12
g13
(g17
S'\x00\x00\x00\x00\x00\x80T@'
p496
tp497
Rp498
sa(dp499
g7
I11
sg8
I9
sg9
I10
sg10
I4587
sg11
I3370
sg12
g13
(g17
S'\x00\x00\x00\x00\x00\x80L@'
p500
tp501
Rp502
sa(dp503
g7
I11
sg8
I48
sg9
I11
sg10
I4107
sg11
I3371
sg12
g13
(g17
S'\x00\x00\x00\x00\x00\x80U@'
p504
tp505
Rp506
sa(dp507
g7
I11
sg8
I54
sg9
I12
sg10
I5203
sg11
I3372
sg12
g13
(g17
S'\x00\x00\x00\x00\x00\x00\x08@'
p508
tp509
Rp510
sa(dp511
g7
I11
sg8
I57
sg9
I13
sg10
I5035
sg11
I3373
sg12
g13
(g17
S'\x00\x00\x00\x00\x00\x00*@'
p512
tp513
Rp514
sa(dp515
g7
I12
sg8
I94
sg9
I0
sg10
I4896
sg11
I3374
sg12
g13
(g17
S'\x00\x00\x00\x00\x00\x00&@'
p516
tp517
Rp518
sa(dp519
g7
I12
sg8
I80
sg9
I2
sg10
I4661
sg11
I3375
sg12
g13
(g17
S'\x00\x00\x00\x00\x00\x80B@'
p520
tp521
Rp522
sa(dp523
g7
I12
sg8
I65
sg9
I4
sg10
I4491
sg11
I3376
sg12
g13
(g17
S'\x00\x00\x00\x00\x00\x001@'
p524
tp525
Rp526
sa(dp527
g7
I12
sg8
I29
sg9
I5
sg10
I3633
sg11
I3377
sg12
g13
(g17
S'\x00\x00\x00\x00\x00\x00Q@'
p528
tp529
Rp530
sa(dp531
g7
I12
sg8
I14
sg9
I6
sg10
I5243
sg11
I3378
sg12
g13
(g17
S'\x00\x00\x00\x00\x00\x00\x08@'
p532
tp533
Rp534
sa(dp535
g7
I12
sg8
I3
sg9
I8
sg10
I3074
sg11
I3379
sg12
g13
(g17
S'\x00\x00\x00\x00\x00\x80S@'
p536
tp537
Rp538
sa(dp539
g7
I12
sg8
I46
sg9
I9
sg10
I5138
sg11
I3380
sg12
g13
(g17
S'\x00\x00\x00\x00\x00\x00\x14@'
p540
tp541
Rp542
sa(dp543
g7
I12
sg8
I9
sg9
I13
sg10
I4124
sg11
I3381
sg12
g13
(g17
S'\x00\x00\x00\x00\x00\x00P@'
p544
tp545
Rp546
sa(dp547
g7
I12
sg8
I1
sg9
I14
sg10
I5085
sg11
I3382
sg12
g13
(g17
S'\x00\x00\x00\x00\x00\x00\x1c@'
p548
tp549
Rp550
sa(dp551
g7
I13
sg8
I57
sg9
I1
sg10
I3573
sg11
I3383
sg12
g13
(g17
S'\x00\x00\x00\x00\x00\x00B@'
p552
tp553
Rp554
sa(dp555
g7
I13
sg8
I40
sg9
I2
sg10
I5047
sg11
I3384
sg12
g13
(g17
S'\x00\x00\x00\x00\x00\x00 @'
p556
tp557
Rp558
sa(dp559
g7
I13
sg8
I52
sg9
I3
sg10
I4942
sg11
I3385
sg12
g13
(g17
S'\x00\x00\x00\x00\x00\x00.@'
p560
tp561
Rp562
sa(dp563
g7
I13
sg8
I49
sg9
I4
sg10
I3061
sg11
I3386
sg12
g13
(g17
S'\x00\x00\x00\x00\x00\xc0[@'
p564
tp565
Rp566
sa(dp567
g7
I13
sg8
I90
sg9
I6
sg10
I4068
sg11
I3387
sg12
g13
(g17
S'\x00\x00\x00\x00\x00@V@'
p568
tp569
Rp570
sa(dp571
g7
I13
sg8
I40
sg9
I7
sg10
I5500
sg11
I3388
sg12
g13
(g17
S'\x00\x00\x00\x00\x00\x00&@'
p572
tp573
Rp574
sa(dp575
g7
I13
sg8
I66
sg9
I8
sg10
I4783
sg11
I3389
sg12
g13
(g17
S'\x00\x00\x00\x00\x00\x00.@'
p576
tp577
Rp578
sa(dp579
g7
I13
sg8
I20
sg9
I9
sg10
I4556
sg11
I3390
sg12
g13
(g17
S'\x00\x00\x00\x00\x00\x80B@'
p580
tp581
Rp582
sa(dp583
g7
I13
sg8
I95
sg9
I11
sg10
I5499
sg11
I3391
sg12
g13
(g17
S'\x00\x00\x00\x00\x00\x00\x14@'
p584
tp585
Rp586
sa(dp587
g7
I13
sg8
I24
sg9
I13
sg10
I4693
sg11
I3392
sg12
g13
(g17
S'\x00\x00\x00\x00\x00\x00*@'
p588
tp589
Rp590
sa(dp591
g7
I13
sg8
I29
sg9
I14
sg10
I5313
sg11
I3393
sg12
g13
(g17
S'\x00\x00\x00\x00\x00\x00 @'
p592
tp593
Rp594
sa(dp595
g7
I13
sg8
I53
sg9
I15
sg10
I5139
sg11
I3394
sg12
g13
(g17
S'\x00\x00\x00\x00\x00\x00*@'
p596
tp597
Rp598
sa(dp599
g7
I14
sg8
I92
sg9
I1
sg10
I4470
sg11
I3395
sg12
g13
(g17
S'\x00\x00\x00\x00\x00\x007@'
p600
tp601
Rp602
sa(dp603
g7
I14
sg8
I38
sg9
I2
sg10
I5232
sg11
I3396
sg12
g13
(g17
S'\x00\x00\x00\x00\x00\x000@'
p604
tp605
Rp606
sa(dp607
g7
I14
sg8
I85
sg9
I3
sg10
I2982
sg11
I3397
sg12
g13
(g17
S'\x00\x00\x00\x00\x00\x00Q@'
p608
tp609
Rp610
sa(dp611
g7
I14
sg8
I10
sg9
I6
sg10
I3688
sg11
I3398
sg12
g13
(g17
S'\x00\x00\x00\x00\x00\x00Z@'
p612
tp613
Rp614
sa(dp615
g7
I14
sg8
I2
sg9
I7
sg10
I4120
sg11
I3399
sg12
g13
(g17
S'\x00\x00\x00\x00\x00\x80J@'
p616
tp617
Rp618
sa(dp619
g7
I14
sg8
I83
sg9
I10
sg10
I5002
sg11
I3400
sg12
g13
(g17
S'\x00\x00\x00\x00\x00\x00\x18@'
p620
tp621
Rp622
sa(dp623
g7
I14
sg8
I73
sg9
I11
sg10
I4932
sg11
I3401
sg12
g13
(g17
S'\x00\x00\x00\x00\x00\x00:@'
p624
tp625
Rp626
sa(dp627
g7
I14
sg8
I85
sg9
I12
sg10
I4636
sg11
I3402
sg12
g13
(g17
S'\x00\x00\x00\x00\x00\x001@'
p628
tp629
Rp630
sa(dp631
g7
I14
sg8
I36
sg9
I14
sg10
I5151
sg11
I3403
sg12
g13
(g17
S'\x00\x00\x00\x00\x00\x00 @'
p632
tp633
Rp634
sa(dp635
g7
I15
sg8
I41
sg9
I0
sg10
I4694
sg11
I3404
sg12
g13
(g17
S'\x00\x00\x00\x00\x00\x00?@'
p636
tp637
Rp638
sa(dp639
g7
I15
sg8
I19
sg9
I1
sg10
I5067
sg11
I3405
sg12
g13
(g17
S'\x00\x00\x00\x00\x00\x00\x1c@'
p640
tp641
Rp642
sa(dp643
g7
I15
sg8
I4
sg9
I2
sg10
I3068
sg11
I3406
sg12
g13
(g17
S'\x00\x00\x00\x00\x00@R@'
p644
tp645
Rp646
sa(dp647
g7
I15
sg8
I86
sg9
I3
sg10
I5251
sg11
I3407
sg12
g13
(g17
S'\x00\x00\x00\x00\x00\x00\x08@'
p648
tp649
Rp650
sa(dp651
g7
I15
sg8
I35
sg9
I5
sg10
I4584
sg11
I3408
sg12
g13
(g17
S'\x00\x00\x00\x00\x00\x00T@'
p652
tp653
Rp654
sa(dp655
g7
I15
sg8
I49
sg9
I7
sg10
I5545
sg11
I3409
sg12
g13
(g17
S'\x00\x00\x00\x00\x00\x00\x14@'
p656
tp657
Rp658
sa(dp659
g7
I15
sg8
I60
sg9
I8
sg10
I5341
sg11
I3410
sg12
g13
(g17
S'\x00\x00\x00\x00\x00\x00\x00@'
p660
tp661
Rp662
sa(dp663
g7
I15
sg8
I28
sg9
I9
sg10
I4065
sg11
I3411
sg12
g13
(g17
S'\x00\x00\x00\x00\x00\x008@'
p664
tp665
Rp666
sa(dp667
g7
I15
sg8
I14
sg9
I10
sg10
I3665
sg11
I3412
sg12
g13
(g17
S'\x00\x00\x00\x00\x00@U@'
p668
tp669
Rp670
sa(dp671
g7
I15
sg8
I95
sg9
I13
sg10
I5447
sg11
I3413
sg12
g13
(g17
S'\x00\x00\x00\x00\x00\x00*@'
p672
tp673
Rp674
sa(dp675
g7
I15
sg8
I44
sg9
I14
sg10
I4812
sg11
I3414
sg12
g13
(g17
S'\x00\x00\x00\x00\x00\x006@'
p676
tp677
Rp678
sa(dp679
g7
I15
sg8
I46
sg9
I15
sg10
I5560
sg11
I3415
sg12
g13
(g17
S'\x00\x00\x00\x00\x00\x00(@'
p680
tp681
Rp682
sa(dp683
g7
I0
sg8
I146
sg9
I0
sg10
I3522
sg11
I3416
sg12
g13
(g17
S'\x00\x00\x00\x00\x00\x80B@'
p684
tp685
Rp686
sa(dp687
g7
I0
sg8
I116
sg9
I1
sg10
I4614
sg11
I3417
sg12
g13
(g17
S'\x00\x00\x00\x00\x00\x00*@'
p688
tp689
Rp690
sa(dp691
g7
I0
sg8
I184
sg9
I3
sg10
I4998
sg11
I3418
sg12
g13
(g17
S'\x00\x00\x00\x00\x00@[@'
p692
tp693
Rp694
sa(dp695
g7
I0
sg8
I129
sg9
I4
sg10
I5215
sg11
I3419
sg12
g13
(g17
S'\x00\x00\x00\x00\x00\x00\x14@'
p696
tp697
Rp698
sa(dp699
g7
I0
sg8
I173
sg9
I5
sg10
I4038
sg11
I3420
sg12
g13
(g17
S'\x00\x00\x00\x00\x00\xc0Q@'
p700
tp701
Rp702
sa(dp703
g7
I0
sg8
I161
sg9
I7
sg10
I3016
sg11
I3421
sg12
g13
(g17
S'\x00\x00\x00\x00\x00@V@'
p704
tp705
Rp706
sa(dp707
g7
I0
sg8
I181
sg9
I8
sg10
I4818
sg11
I3422
sg12
g13
(g17
S'\x00\x00\x00\x00\x00\x00$@'
p708
tp709
Rp710
sa(dp711
g7
I0
sg8
I140
sg9
I10
sg10
I5126
sg11
I3423
sg12
g13
(g17
S'\x00\x00\x00\x00\x00\x00\x18@'
p712
tp713
Rp714
sa(dp715
g7
I0
sg8
I170
sg9
I13
sg10
I4696
sg11
I3424
sg12
g13
(g17
S'\x00\x00\x00\x00\x00\x000@'
p716
tp717
Rp718
sa(dp719
g7
I1
sg8
I196
sg9
I0
sg10
I2899
sg11
I3425
sg12
g13
(g17
S'\x00\x00\x00\x00\x00\x00H@'
p720
tp721
Rp722
sa(dp723
g7
I1
sg8
I156
sg9
I1
sg10
I5100
sg11
I3426
sg12
g13
(g17
S'\x00\x00\x00\x00\x00\x00\xf0?'
p724
tp725
Rp726
sa(dp727
g7
I1
sg8
I124
sg9
I2
sg10
I5415
sg11
I3427
sg12
g13
(g17
S'\x00\x00\x00\x00\x00\x00\x14@'
p728
tp729
Rp730
sa(dp731
g7
I1
sg8
I114
sg9
I3
sg10
I5751
sg11
I3428
sg12
g13
(g17
S'\x00\x00\x00\x00\x00\x00\x08@'
p732
tp733
Rp734
sa(dp735
g7
I1
sg8
I176
sg9
I4
sg10
I4837
sg11
I3429
sg12
g13
(g17
S'\x00\x00\x00\x00\x00\x001@'
p736
tp737
Rp738
sa(dp739
g7
I1
sg8
I119
sg9
I5
sg10
I4747
sg11
I3430
sg12
g13
(g17
S'\x00\x00\x00\x00\x00\x000@'
p740
tp741
Rp742
sa(dp743
g7
I1
sg8
I125
sg9
I7
sg10
I3613
sg11
I3431
sg12
g13
(g17
S'\x00\x00\x00\x00\x00\x00R@'
p744
tp745
Rp746
sa(dp747
g7
I1
sg8
I104
sg9
I10
sg10
I5236
sg11
I3432
sg12
g13
(g17
S'\x00\x00\x00\x00\x00\x00\x08@'
p748
tp749
Rp750
sa(dp751
g7
I1
sg8
I104
sg9
I11
sg10
I4541
sg11
I3433
sg12
g13
(g17
S'\x00\x00\x00\x00\x00\x80J@'
p752
tp753
Rp754
sa(dp755
g7
I1
sg8
I189
sg9
I12
sg10
I5006
sg11
I3434
sg12
g13
(g17
S'\x00\x00\x00\x00\x00\x00 @'
p756
tp757
Rp758
sa(dp759
g7
I1
sg8
I110
sg9
I14
sg10
I4023
sg11
I3435
sg12
g13
(g17
S'\x00\x00\x00\x00\x00\x00@@'
p760
tp761
Rp762
sa(dp763
g7
I1
sg8
I154
sg9
I15
sg10
I4941
sg11
I3436
sg12
g13
(g17
S'\x00\x00\x00\x00\x00\x00 @'
p764
tp765
Rp766
sa(dp767
g7
I2
sg8
I160
sg9
I0
sg10
I5249
sg11
I3437
sg12
g13
(g17
S'\x00\x00\x00\x00\x00\x009@'
p768
tp769
Rp770
sa(dp771
g7
I2
sg8
I107
sg9
I1
sg10
I5082
sg11
I3438
sg12
g13
(g17
S'\x00\x00\x00\x00\x00\x00\x14@'
p772
tp773
Rp774
sa(dp775
g7
I2
sg8
I168
sg9
I2
sg10
I5502
sg11
I3439
sg12
g13
(g17
S'\x00\x00\x00\x00\x00\x00*@'
p776
tp777
Rp778
sa(dp779
g7
I2
sg8
I155
sg9
I3
sg10
I4723
sg11
I3440
sg12
g13
(g17
S'\x00\x00\x00\x00\x00\x006@'
p780
tp781
Rp782
sa(dp783
g7
I2
sg8
I129
sg9
I5
sg10
I3058
sg11
I3441
sg12
g13
(g17
S'\x00\x00\x00\x00\x00\x80W@'
p784
tp785
Rp786
sa(dp787
g7
I2
sg8
I138
sg9
I6
sg10
I4616
sg11
I3442
sg12
g13
(g17
S'\x00\x00\x00\x00\x00\xc0W@'
p788
tp789
Rp790
sa(dp791
g7
I2
sg8
I122
sg9
I8
sg10
I4977
sg11
I3443
sg12
g13
(g17
S'\x00\x00\x00\x00\x00\x00$@'
p792
tp793
Rp794
sa(dp795
g7
I2
sg8
I116
sg9
I9
sg10
I5895
sg11
I3444
sg12
g13
(g17
S'\x00\x00\x00\x00\x00\x00\xf0?'
p796
tp797
Rp798
sa(dp799
g7
I2
sg8
I148
sg9
I10
sg10
I4027
sg11
I3445
sg12
g13
(g17
S'\x00\x00\x00\x00\x00\x80J@'
p800
tp801
Rp802
sa(dp803
g7
I2
sg8
I198
sg9
I11
sg10
I5339
sg11
I3446
sg12
g13
(g17
S'\x00\x00\x00\x00\x00\x00\x10@'
p804
tp805
Rp806
sa(dp807
g7
I2
sg8
I123
sg9
I13
sg10
I3619
sg11
I3447
sg12
g13
(g17
S'\x00\x00\x00\x00\x00\x80R@'
p808
tp809
Rp810
sa(dp811
g7
I2
sg8
I148
sg9
I14
sg10
I5301
sg11
I3448
sg12
g13
(g17
S'\x00\x00\x00\x00\x00\x00\x14@'
p812
tp813
Rp814
sa(dp815
g7
I2
sg8
I180
sg9
I15
sg10
I5096
sg11
I3449
sg12
g13
(g17
S'\x00\x00\x00\x00\x00\x00&@'
p816
tp817
Rp818
sa(dp819
g7
I3
sg8
I117
sg9
I2
sg10
I5231
sg11
I3450
sg12
g13
(g17
S'\x00\x00\x00\x00\x00\x00\x1c@'
p820
tp821
Rp822
sa(dp823
g7
I3
sg8
I113
sg9
I6
sg10
I4990
sg11
I3451
sg12
g13
(g17
S'\x00\x00\x00\x00\x00\x00(@'
p824
tp825
Rp826
sa(dp827
g7
I3
sg8
I186
sg9
I8
sg10
I3638
sg11
I3452
sg12
g13
(g17
S'\x00\x00\x00\x00\x00\xc0\\@'
p828
tp829
Rp830
sa(dp831
g7
I3
sg8
I160
sg9
I9
sg10
I4582
sg11
I3453
sg12
g13
(g17
S'\x00\x00\x00\x00\x00\x003@'
p832
tp833
Rp834
sa(dp835
g7
I3
sg8
I183
sg9
I10
sg10
I4818
sg11
I3454
sg12
g13
(g17
S'\x00\x00\x00\x00\x00\x00&@'
p836
tp837
Rp838
sa(dp839
g7
I3
sg8
I172
sg9
I11
sg10
I4710
sg11
I3455
sg12
g13
(g17
S'\x00\x00\x00\x00\x00\x008@'
p840
tp841
Rp842
sa(dp843
g7
I3
sg8
I170
sg9
I12
sg10
I4423
sg11
I3456
sg12
g13
(g17
S'\x00\x00\x00\x00\x00\x00;@'
p844
tp845
Rp846
sa(dp847
g7
I3
sg8
I124
sg9
I13
sg10
I5075
sg11
I3457
sg12
g13
(g17
S'\x00\x00\x00\x00\x00\x00$@'
p848
tp849
Rp850
sa(dp851
g7
I3
sg8
I121
sg9
I14
sg10
I5151
sg11
I3458
sg12
g13
(g17
S'\x00\x00\x00\x00\x00\x00"@'
p852
tp853
Rp854
sa(dp855
g7
I3
sg8
I108
sg9
I15
sg10
I3069
sg11
I3459
sg12
g13
(g17
S'\x00\x00\x00\x00\x00@V@'
p856
tp857
Rp858
sa(dp859
g7
I4
sg8
I143
sg9
I0
sg10
I3992
sg11
I3460
sg12
g13
(g17
S'\x00\x00\x00\x00\x00\x80@@'
p860
tp861
Rp862
sa(dp863
g7
I4
sg8
I106
sg9
I1
sg10
I4752
sg11
I3461
sg12
g13
(g17
S'\x00\x00\x00\x00\x00\x00(@'
p864
tp865
Rp866
sa(dp867
g7
I4
sg8
I118
sg9
I2
sg10
I3544
sg11
I3462
sg12
g13
(g17
S'\x00\x00\x00\x00\x00\x00A@'
p868
tp869
Rp870
sa(dp871
g7
I4
sg8
I116
sg9
I3
sg10
I4624
sg11
I3463
sg12
g13
(g17
S'\x00\x00\x00\x00\x00\x002@'
p872
tp873
Rp874
sa(dp875
g7
I4
sg8
I154
sg9
I5
sg10
I5120
sg11
I3464
sg12
g13
(g17
S'\x00\x00\x00\x00\x00\x00$@'
p876
tp877
Rp878
sa(dp879
g7
I4
sg8
I123
sg9
I8
sg10
I5072
sg11
I3465
sg12
g13
(g17
S'\x00\x00\x00\x00\x00\x00 @'
p880
tp881
Rp882
sa(dp883
g7
I4
sg8
I105
sg9
I11
sg10
I5004
sg11
I3466
sg12
g13
(g17
S'\x00\x00\x00\x00\x00\x00.@'
p884
tp885
Rp886
sa(dp887
g7
I4
sg8
I140
sg9
I12
sg10
I4857
sg11
I3467
sg12
g13
(g17
S'\x00\x00\x00\x00\x00\x00"@'
p888
tp889
Rp890
sa(dp891
g7
I4
sg8
I157
sg9
I13
sg10
I3006
sg11
I3468
sg12
g13
(g17
S'\x00\x00\x00\x00\x00\x80T@'
p892
tp893
Rp894
sa(dp895
g7
I4
sg8
I128
sg9
I14
sg10
I4443
sg11
I3469
sg12
g13
(g17
S'\x00\x00\x00\x00\x00\x000@'
p896
tp897
Rp898
sa(dp899
g7
I4
sg8
I143
sg9
I15
sg10
I5205
sg11
I3470
sg12
g13
(g17
S'\x00\x00\x00\x00\x00\x00\x1c@'
p900
tp901
Rp902
sa(dp903
g7
I5
sg8
I148
sg9
I1
sg10
I4095
sg11
I3471
sg12
g13
(g17
S'\x00\x00\x00\x00\x00\xc0U@'
p904
tp905
Rp906
sa(dp907
g7
I5
sg8
I137
sg9
I2
sg10
I5052
sg11
I3472
sg12
g13
(g17
S'\x00\x00\x00\x00\x00\x00\x14@'
p908
tp909
Rp910
sa(dp911
g7
I5
sg8
I138
sg9
I4
sg10
I4959
sg11
I3473
sg12
g13
(g17
S'\x00\x00\x00\x00\x00\x00"@'
p912
tp913
Rp914
sa(dp915
g7
I5
sg8
I110
sg9
I7
sg10
I4471
sg11
I3474
sg12
g13
(g17
S'\x00\x00\x00\x00\x00\x005@'
p916
tp917
Rp918
sa(dp919
g7
I5
sg8
I175
sg9
I9
sg10
I5174
sg11
I3475
sg12
g13
(g17
S'\x00\x00\x00\x00\x00@Z@'
p920
tp921
Rp922
sa(dp923
g7
I5
sg8
I144
sg9
I12
sg10
I3173
sg11
I3476
sg12
g13
(g17
S'\x00\x00\x00\x00\x00\xe0c@'
p924
tp925
Rp926
sa(dp927
g7
I5
sg8
I103
sg9
I13
sg10
I5155
sg11
I3477
sg12
g13
(g17
S'\x00\x00\x00\x00\x00\x00\x00@'
p928
tp929
Rp930
sa(dp931
g7
I5
sg8
I116
sg9
I14
sg10
I4618
sg11
I3478
sg12
g13
(g17
S'\x00\x00\x00\x00\x00\x00.@'
p932
tp933
Rp934
sa(dp935
g7
I6
sg8
I108
sg9
I0
sg10
I4987
sg11
I3479
sg12
g13
(g17
S'\x00\x00\x00\x00\x00\x00 @'
p936
tp937
Rp938
sa(dp939
g7
I6
sg8
I166
sg9
I2
sg10
I4113
sg11
I3480
sg12
g13
(g17
S'\x00\x00\x00\x00\x00@Z@'
p940
tp941
Rp942
sa(dp943
g7
I6
sg8
I166
sg9
I3
sg10
I3560
sg11
I3481
sg12
g13
(g17
S'\x00\x00\x00\x00\x00\x80P@'
p944
tp945
Rp946
sa(dp947
g7
I6
sg8
I158
sg9
I4
sg10
I5112
sg11
I3482
sg12
g13
(g17
S'\x00\x00\x00\x00\x00\x00 @'
p948
tp949
Rp950
sa(dp951
g7
I6
sg8
I103
sg9
I6
sg10
I5112
sg11
I3483
sg12
g13
(g17
S'\x00\x00\x00\x00\x00\x002@'
p952
tp953
Rp954
sa(dp955
g7
I6
sg8
I129
sg9
I8
sg10
I4466
sg11
I3484
sg12
g13
(g17
S'\x00\x00\x00\x00\x00\x00<@'
p956
tp957
Rp958
sa(dp959
g7
I6
sg8
I188
sg9
I9
sg10
I2915
sg11
I3485
sg12
g13
(g17
S'\x00\x00\x00\x00\x00\x00J@'
p960
tp961
Rp962
sa(dp963
g7
I6
sg8
I119
sg9
I12
sg10
I4745
sg11
I3486
sg12
g13
(g17
S'\x00\x00\x00\x00\x00\x00.@'
p964
tp965
Rp966
sa(dp967
g7
I6
sg8
I128
sg9
I13
sg10
I4877
sg11
I3487
sg12
g13
(g17
S'\x00\x00\x00\x00\x00\x00*@'
p968
tp969
Rp970
sa(dp971
g7
I6
sg8
I106
sg9
I15
sg10
I4638
sg11
I3488
sg12
g13
(g17
S'\x00\x00\x00\x00\x00\x004@'
p972
tp973
Rp974
sa(dp975
g7
I7
sg8
I151
sg9
I0
sg10
I4440
sg11
I3489
sg12
g13
(g17
S'\x00\x00\x00\x00\x00\x00:@'
p976
tp977
Rp978
sa(dp979
g7
I7
sg8
I188
sg9
I1
sg10
I5409
sg11
I3490
sg12
g13
(g17
S'\x00\x00\x00\x00\x00\x00\x10@'
p980
tp981
Rp982
sa(dp983
g7
I7
sg8
I155
sg9
I5
sg10
I5384
sg11
I3491
sg12
g13
(g17
S'\x00\x00\x00\x00\x00\x00\x14@'
p984
tp985
Rp986
sa(dp987
g7
I7
sg8
I180
sg9
I7
sg10
I4685
sg11
I3492
sg12
g13
(g17
S'\x00\x00\x00\x00\x00\x00Q@'
p988
tp989
Rp990
sa(dp991
g7
I7
sg8
I139
sg9
I8
sg10
I5129
sg11
I3493
sg12
g13
(g17
S'\x00\x00\x00\x00\x00\x00\x1c@'
p992
tp993
Rp994
sa(dp995
g7
I7
sg8
I151
sg9
I9
sg10
I4942
sg11
I3494
sg12
g13
(g17
S'\x00\x00\x00\x00\x00\x00\x1c@'
p996
tp997
Rp998
sa(dp999
g7
I7
sg8
I130
sg9
I10
sg10
I5273
sg11
I3495
sg12
g13
(g17
S'\x00\x00\x00\x00\x00\x00\x00@'
p1000
tp1001
Rp1002
sa(dp1003
g7
I7
sg8
I151
sg9
I11
sg10
I3030
sg11
I3496
sg12
g13
(g17
S'\x00\x00\x00\x00\x00\xc0V@'
p1004
tp1005
Rp1006
sa(dp1007
g7
I7
sg8
I140
sg9
I13
sg10
I5224
sg11
I3497
sg12
g13
(g17
S'\x00\x00\x00\x00\x00\x00.@'
p1008
tp1009
Rp1010
sa(dp1011
g7
I7
sg8
I109
sg9
I14
sg10
I3655
sg11
I3498
sg12
g13
(g17
S'\x00\x00\x00\x00\x00@U@'
p1012
tp1013
Rp1014
sa(dp1015
g7
I7
sg8
I104
sg9
I15
sg10
I4075
sg11
I3499
sg12
g13
(g17
S'\x00\x00\x00\x00\x00\x80K@'
p1016
tp1017
Rp1018
sa(dp1019
g7
I8
sg8
I199
sg9
I1
sg10
I2936
sg11
I3500
sg12
g13
(g17
S'\x00\x00\x00\x00\x00\x00Q@'
p1020
tp1021
Rp1022
sa(dp1023
g7
I8
sg8
I183
sg9
I3
sg10
I5083
sg11
I3501
sg12
g13
(g17
S'\x00\x00\x00\x00\x00\x00\x18@'
p1024
tp1025
Rp1026
sa(dp1027
g7
I8
sg8
I133
sg9
I4
sg10
I4082
sg11
I3502
sg12
g13
(g17
S'\x00\x00\x00\x00\x00@R@'
p1028
tp1029
Rp1030
sa(dp1031
g7
I8
sg8
I130
sg9
I5
sg10
I4600
sg11
I3503
sg12
g13
(g17
S'\x00\x00\x00\x00\x00\x00*@'
p1032
tp1033
Rp1034
sa(dp1035
g7
I8
sg8
I159
sg9
I6
sg10
I5501
sg11
I3504
sg12
g13
(g17
S'\x00\x00\x00\x00\x00\x00 @'
p1036
tp1037
Rp1038
sa(dp1039
g7
I8
sg8
I139
sg9
I7
sg10
I4968
sg11
I3505
sg12
g13
(g17
S'\x00\x00\x00\x00\x00\x00,@'
p1040
tp1041
Rp1042
sa(dp1043
g7
I8
sg8
I164
sg9
I8
sg10
I5184
sg11
I3506
sg12
g13
(g17
S'\x00\x00\x00\x00\x00\x00\x1c@'
p1044
tp1045
Rp1046
sa(dp1047
g7
I8
sg8
I197
sg9
I11
sg10
I5002
sg11
I3507
sg12
g13
(g17
S'\x00\x00\x00\x00\x00\x00$@'
p1048
tp1049
Rp1050
sa(dp1051
g7
I8
sg8
I189
sg9
I13
sg10
I5403
sg11
I3508
sg12
g13
(g17
S'\x00\x00\x00\x00\x00\x00"@'
p1052
tp1053
Rp1054
sa(dp1055
g7
I8
sg8
I177
sg9
I14
sg10
I4826
sg11
I3509
sg12
g13
(g17
S'\x00\x00\x00\x00\x00\x00(@'
p1056
tp1057
Rp1058
sa(dp1059
g7
I8
sg8
I153
sg9
I15
sg10
I3765
sg11
I3510
sg12
g13
(g17
S'\x00\x00\x00\x00\x00@d@'
p1060
tp1061
Rp1062
sa(dp1063
g7
I9
sg8
I103
sg9
I3
sg10
I4040
sg11
I3511
sg12
g13
(g17
S'\x00\x00\x00\x00\x00\x80B@'
p1064
tp1065
Rp1066
sa(dp1067
g7
I9
sg8
I190
sg9
I4
sg10
I4673
sg11
I3512
sg12
g13
(g17
S'\x00\x00\x00\x00\x00\xc0P@'
p1068
tp1069
Rp1070
sa(dp1071
g7
I9
sg8
I122
sg9
I5
sg10
I5220
sg11
I3513
sg12
g13
(g17
S'\x00\x00\x00\x00\x00\x00\x10@'
p1072
tp1073
Rp1074
sa(dp1075
g7
I9
sg8
I196
sg9
I7
sg10
I5066
sg11
I3514
sg12
g13
(g17
S'\x00\x00\x00\x00\x00\x00\x10@'
p1076
tp1077
Rp1078
sa(dp1079
g7
I9
sg8
I169
sg9
I10
sg10
I3058
sg11
I3515
sg12
g13
(g17
S'\x00\x00\x00\x00\x00\x80\\@'
p1080
tp1081
Rp1082
sa(dp1083
g7
I9
sg8
I117
sg9
I11
sg10
I3657
sg11
I3516
sg12
g13
(g17
S'\x00\x00\x00\x00\x00\x80V@'
p1084
tp1085
Rp1086
sa(dp1087
g7
I9
sg8
I128
sg9
I12
sg10
I4969
sg11
I3517
sg12
g13
(g17
S'\x00\x00\x00\x00\x00\x00"@'
p1088
tp1089
Rp1090
sa(dp1091
g7
I9
sg8
I135
sg9
I13
sg10
I4444
sg11
I3518
sg12
g13
(g17
S'\x00\x00\x00\x00\x00\x004@'
p1092
tp1093
Rp1094
sa(dp1095
g7
I9
sg8
I164
sg9
I14
sg10
I5245
sg11
I3519
sg12
g13
(g17
S'\x00\x00\x00\x00\x00\x00\x14@'
p1096
tp1097
Rp1098
sa(dp1099
g7
I9
sg8
I137
sg9
I15
sg10
I4872
sg11
I3520
sg12
g13
(g17
S'\x00\x00\x00\x00\x00\x00.@'
p1100
tp1101
Rp1102
sa(dp1103
g7
I10
sg8
I129
sg9
I0
sg10
I4771
sg11
I3521
sg12
g13
(g17
S'\x00\x00\x00\x00\x00\x80@@'
p1104
tp1105
Rp1106
sa(dp1107
g7
I10
sg8
I134
sg9
I1
sg10
I4867
sg11
I3522
sg12
g13
(g17
S'\x00\x00\x00\x00\x00\x00&@'
p1108
tp1109
Rp1110
sa(dp1111
g7
I10
sg8
I134
sg9
I2
sg10
I4441
sg11
I3523
sg12
g13
(g17
S'\x00\x00\x00\x00\x00\x002@'
p1112
tp1113
Rp1114
sa(dp1115
g7
I10
sg8
I158
sg9
I4
sg10
I3520
sg11
I3524
sg12
g13
(g17
S'\x00\x00\x00\x00\x00\x00E@'
p1116
tp1117
Rp1118
sa(dp1119
g7
I10
sg8
I187
sg9
I5
sg10
I4906
sg11
I3525
sg12
g13
(g17
S'\x00\x00\x00\x00\x00\x00\x1c@'
p1120
tp1121
Rp1122
sa(dp1123
g7
I10
sg8
I156
sg9
I6
sg10
I5298
sg11
I3526
sg12
g13
(g17
S'\x00\x00\x00\x00\x00\x00.@'
p1124
tp1125
Rp1126
sa(dp1127
g7
I10
sg8
I194
sg9
I10
sg10
I4552
sg11
I3527
sg12
g13
(g17
S'\x00\x00\x00\x00\x00\x005@'
p1128
tp1129
Rp1130
sa(dp1131
g7
I10
sg8
I185
sg9
I11
sg10
I5071
sg11
I3528
sg12
g13
(g17
S'\x00\x00\x00\x00\x00\x00\xf0?'
p1132
tp1133
Rp1134
sa(dp1135
g7
I10
sg8
I139
sg9
I12
sg10
I3974
sg11
I3529
sg12
g13
(g17
S'\x00\x00\x00\x00\x00\x006@'
p1136
tp1137
Rp1138
sa(dp1139
g7
I10
sg8
I186
sg9
I14
sg10
I3023
sg11
I3530
sg12
g13
(g17
S'\x00\x00\x00\x00\x00@Z@'
p1140
tp1141
Rp1142
sa(dp1143
g7
I11
sg8
I160
sg9
I2
sg10
I4847
sg11
I3531
sg12
g13
(g17
S'\x00\x00\x00\x00\x00\x00,@'
p1144
tp1145
Rp1146
sa(dp1147
g7
I11
sg8
I189
sg9
I6
sg10
I2920
sg11
I3532
sg12
g13
(g17
S'\x00\x00\x00\x00\x00\x80K@'
p1148
tp1149
Rp1150
sa(dp1151
g7
I11
sg8
I173
sg9
I7
sg10
I5191
sg11
I3533
sg12
g13
(g17
S'\x00\x00\x00\x00\x00\x00.@'
p1152
tp1153
Rp1154
sa(dp1155
g7
I11
sg8
I113
sg9
I8
sg10
I4619
sg11
I3534
sg12
g13
(g17
S'\x00\x00\x00\x00\x00\x00,@'
p1156
tp1157
Rp1158
sa(dp1159
g7
I11
sg8
I130
sg9
I9
sg10
I3628
sg11
I3535
sg12
g13
(g17
S'\x00\x00\x00\x00\x00\x80T@'
p1160
tp1161
Rp1162
sa(dp1163
g7
I11
sg8
I109
sg9
I10
sg10
I4544
sg11
I3536
sg12
g13
(g17
S'\x00\x00\x00\x00\x00\x80L@'
p1164
tp1165
Rp1166
sa(dp1167
g7
I11
sg8
I148
sg9
I11
sg10
I4093
sg11
I3537
sg12
g13
(g17
S'\x00\x00\x00\x00\x00\x80U@'
p1168
tp1169
Rp1170
sa(dp1171
g7
I11
sg8
I154
sg9
I12
sg10
I5106
sg11
I3538
sg12
g13
(g17
S'\x00\x00\x00\x00\x00\x00\x08@'
p1172
tp1173
Rp1174
sa(dp1175
g7
I11
sg8
I157
sg9
I13
sg10
I4948
sg11
I3539
sg12
g13
(g17
S'\x00\x00\x00\x00\x00\x00*@'
p1176
tp1177
Rp1178
sa(dp1179
g7
I12
sg8
I194
sg9
I0
sg10
I4807
sg11
I3540
sg12
g13
(g17
S'\x00\x00\x00\x00\x00\x00&@'
p1180
tp1181
Rp1182
sa(dp1183
g7
I12
sg8
I180
sg9
I2
sg10
I4598
sg11
I3541
sg12
g13
(g17
S'\x00\x00\x00\x00\x00\x80B@'
p1184
tp1185
Rp1186
sa(dp1187
g7
I12
sg8
I165
sg9
I4
sg10
I4408
sg11
I3542
sg12
g13
(g17
S'\x00\x00\x00\x00\x00\x001@'
p1188
tp1189
Rp1190
sa(dp1191
g7
I12
sg8
I129
sg9
I5
sg10
I3601
sg11
I3543
sg12
g13
(g17
S'\x00\x00\x00\x00\x00\x00Q@'
p1192
tp1193
Rp1194
sa(dp1195
g7
I12
sg8
I114
sg9
I6
sg10
I5146
sg11
I3544
sg12
g13
(g17
S'\x00\x00\x00\x00\x00\x00\x08@'
p1196
tp1197
Rp1198
sa(dp1199
g7
I12
sg8
I103
sg9
I8
sg10
I3052
sg11
I3545
sg12
g13
(g17
S'\x00\x00\x00\x00\x00\x80S@'
p1200
tp1201
Rp1202
sa(dp1203
g7
I12
sg8
I146
sg9
I9
sg10
I5043
sg11
I3546
sg12
g13
(g17
S'\x00\x00\x00\x00\x00\x00\x14@'
p1204
tp1205
Rp1206
sa(dp1207
g7
I12
sg8
I109
sg9
I13
sg10
I4088
sg11
I3547
sg12
g13
(g17
S'\x00\x00\x00\x00\x00\x00P@'
p1208
tp1209
Rp1210
sa(dp1211
g7
I12
sg8
I101
sg9
I14
sg10
I4992
sg11
I3548
sg12
g13
(g17
S'\x00\x00\x00\x00\x00\x00\x1c@'
p1212
tp1213
Rp1214
sa(dp1215
g7
I13
sg8
I157
sg9
I1
sg10
I3509
sg11
I3549
sg12
g13
(g17
S'\x00\x00\x00\x00\x00\x00B@'
p1216
tp1217
Rp1218
sa(dp1219
g7
I13
sg8
I140
sg9
I2
sg10
I4955
sg11
I3550
sg12
g13
(g17
S'\x00\x00\x00\x00\x00\x00 @'
p1220
tp1221
Rp1222
sa(dp1223
g7
I13
sg8
I152
sg9
I3
sg10
I4857
sg11
I3551
sg12
g13
(g17
S'\x00\x00\x00\x00\x00\x00.@'
p1224
tp1225
Rp1226
sa(dp1227
g7
I13
sg8
I149
sg9
I4
sg10
I3072
sg11
I3552
sg12
g13
(g17
S'\x00\x00\x00\x00\x00\xc0[@'
p1228
tp1229
Rp1230
sa(dp1231
g7
I13
sg8
I190
sg9
I6
sg10
I4057
sg11
I3553
sg12
g13
(g17
S'\x00\x00\x00\x00\x00@V@'
p1232
tp1233
Rp1234
sa(dp1235
g7
I13
sg8
I140
sg9
I7
sg10
I5411
sg11
I3554
sg12
g13
(g17
S'\x00\x00\x00\x00\x00\x00&@'
p1236
tp1237
Rp1238
sa(dp1239
g7
I13
sg8
I166
sg9
I8
sg10
I4698
sg11
I3555
sg12
g13
(g17
S'\x00\x00\x00\x00\x00\x00.@'
p1240
tp1241
Rp1242
sa(dp1243
g7
I13
sg8
I120
sg9
I9
sg10
I4493
sg11
I3556
sg12
g13
(g17
S'\x00\x00\x00\x00\x00\x80B@'
p1244
tp1245
Rp1246
sa(dp1247
g7
I13
sg8
I195
sg9
I11
sg10
I5404
sg11
I3557
sg12
g13
(g17
S'\x00\x00\x00\x00\x00\x00\x14@'
p1248
tp1249
Rp1250
sa(dp1251
g7
I13
sg8
I124
sg9
I13
sg10
I4606
sg11
I3558
sg12
g13
(g17
S'\x00\x00\x00\x00\x00\x00*@'
p1252
tp1253
Rp1254
sa(dp1255
g7
I13
sg8
I129
sg9
I14
sg10
I5221
sg11
I3559
sg12
g13
(g17
S'\x00\x00\x00\x00\x00\x00 @'
p1256
tp1257
Rp1258
sa(dp1259
g7
I13
sg8
I153
sg9
I15
sg10
I5052
sg11
I3560
sg12
g13
(g17
S'\x00\x00\x00\x00\x00\x00*@'
p1260
tp1261
Rp1262
sa(dp1263
g7
I14
sg8
I192
sg9
I1
sg10
I4393
sg11
I3561
sg12
g13
(g17
S'\x00\x00\x00\x00\x00\x007@'
p1264
tp1265
Rp1266
sa(dp1267
g7
I14
sg8
I138
sg9
I2
sg10
I5148
sg11
I3562
sg12
g13
(g17
S'\x00\x00\x00\x00\x00\x000@'
p1268
tp1269
Rp1270
sa(dp1271
g7
I14
sg8
I185
sg9
I3
sg10
I2950
sg11
I3563
sg12
g13
(g17
S'\x00\x00\x00\x00\x00\x00Q@'
p1272
tp1273
Rp1274
sa(dp1275
g7
I14
sg8
I110
sg9
I6
sg10
I3692
sg11
I3564
sg12
g13
(g17
S'\x00\x00\x00\x00\x00\x00Z@'
p1276
tp1277
Rp1278
sa(dp1279
g7
I14
sg8
I102
sg9
I7
sg10
I4073
sg11
I3565
sg12
g13
(g17
S'\x00\x00\x00\x00\x00\x80J@'
p1280
tp1281
Rp1282
sa(dp1283
g7
I14
sg8
I183
sg9
I10
sg10
I4908
sg11
I3566
sg12
g13
(g17
S'\x00\x00\x00\x00\x00\x00\x18@'
p1284
tp1285
Rp1286
sa(dp1287
g7
I14
sg8
I173
sg9
I11
sg10
I4858
sg11
I3567
sg12
g13
(g17
S'\x00\x00\x00\x00\x00\x00:@'
p1288
tp1289
Rp1290
sa(dp1291
g7
I14
sg8
I185
sg9
I12
sg10
I4553
sg11
I3568
sg12
g13
(g17
S'\x00\x00\x00\x00\x00\x001@'
p1292
tp1293
Rp1294
sa(dp1295
g7
I14
sg8
I136
sg9
I14
sg10
I5059
sg11
I3569
sg12
g13
(g17
S'\x00\x00\x00\x00\x00\x00 @'
p1296
tp1297
Rp1298
sa(dp1299
g7
I15
sg8
I141
sg9
I0
sg10
I4625
sg11
I3570
sg12
g13
(g17
S'\x00\x00\x00\x00\x00\x00?@'
p1300
tp1301
Rp1302
sa(dp1303
g7
I15
sg8
I119
sg9
I1
sg10
I4974
sg11
I3571
sg12
g13
(g17
S'\x00\x00\x00\x00\x00\x00\x1c@'
p1304
tp1305
Rp1306
sa(dp1307
g7
I15
sg8
I104
sg9
I2
sg10
I3041
sg11
I3572
sg12
g13
(g17
S'\x00\x00\x00\x00\x00@R@'
p1308
tp1309
Rp1310
sa(dp1311
g7
I15
sg8
I186
sg9
I3
sg10
I5154
sg11
I3573
sg12
g13
(g17
S'\x00\x00\x00\x00\x00\x00\x08@'
p1312
tp1313
Rp1314
sa(dp1315
g7
I15
sg8
I135
sg9
I5
sg10
I4864
sg11
I3574
sg12
g13
(g17
S'\x00\x00\x00\x00\x00\x00T@'
p1316
tp1317
Rp1318
sa(dp1319
g7
I15
sg8
I149
sg9
I7
sg10
I5462
sg11
I3575
sg12
g13
(g17
S'\x00\x00\x00\x00\x00\x00\x14@'
p1320
tp1321
Rp1322
sa(dp1323
g7
I15
sg8
I160
sg9
I8
sg10
I5243
sg11
I3576
sg12
g13
(g17
S'\x00\x00\x00\x00\x00\x00\x00@'
p1324
tp1325
Rp1326
sa(dp1327
g7
I15
sg8
I128
sg9
I9
sg10
I3989
sg11
I3577
sg12
g13
(g17
S'\x00\x00\x00\x00\x00\x008@'
p1328
tp1329
Rp1330
sa(dp1331
g7
I15
sg8
I114
sg9
I10
sg10
I3650
sg11
I3578
sg12
g13
(g17
S'\x00\x00\x00\x00\x00@U@'
p1332
tp1333
Rp1334
sa(dp1335
g7
I15
sg8
I195
sg9
I13
sg10
I5360
sg11
I3579
sg12
g13
(g17
S'\x00\x00\x00\x00\x00\x00*@'
p1336
tp1337
Rp1338
sa(dp1339
g7
I15
sg8
I144
sg9
I14
sg10
I4734
sg11
I3580
sg12
g13
(g17
S'\x00\x00\x00\x00\x00\x006@'
p1340
tp1341
Rp1342
sa(dp1343
g7
I15
sg8
I146
sg9
I15
sg10
I5502
sg11
I3581
sg12
g13
(g17
S'\x00\x00\x00\x00\x00\x00(@'
p1344
tp1345
Rp1346
sa(dp1347
g7
I0
sg8
I246
sg9
I0
sg10
I3459
sg11
I3582
sg12
g13
(g17
S'\x00\x00\x00\x00\x00\x80B@'
p1348
tp1349
Rp1350
sa(dp1351
g7
I0
sg8
I216
sg9
I1
sg10
I4527
sg11
I3583
sg12
g13
(g17
S'\x00\x00\x00\x00\x00\x00*@'
p1352
tp1353
Rp1354
sa(dp1355
g7
I0
sg8
I284
sg9
I3
sg10
I5202
sg11
I3584
sg12
g13
(g17
S'\x00\x00\x00\x00\x00@[@'
p1356
tp1357
Rp1358
sa(dp1359
g7
I0
sg8
I229
sg9
I4
sg10
I5120
sg11
I3585
sg12
g13
(g17
S'\x00\x00\x00\x00\x00\x00\x14@'
p1360
tp1361
Rp1362
sa(dp1363
g7
I0
sg8
I273
sg9
I5
sg10
I4009
sg11
I3586
sg12
g13
(g17
S'\x00\x00\x00\x00\x00\xc0Q@'
p1364
tp1365
Rp1366
sa(dp1367
g7
I0
sg8
I261
sg9
I7
sg10
I3005
sg11
I3587
sg12
g13
(g17
S'\x00\x00\x00\x00\x00@V@'
p1368
tp1369
Rp1370
sa(dp1371
g7
I0
sg8
I281
sg9
I8
sg10
I4728
sg11
I3588
sg12
g13
(g17
S'\x00\x00\x00\x00\x00\x00$@'
p1372
tp1373
Rp1374
sa(dp1375
g7
I0
sg8
I240
sg9
I10
sg10
I5032
sg11
I3589
sg12
g13
(g17
S'\x00\x00\x00\x00\x00\x00\x18@'
p1376
tp1377
Rp1378
sa(dp1379
g7
I0
sg8
I270
sg9
I13
sg10
I4612
sg11
I3590
sg12
g13
(g17
S'\x00\x00\x00\x00\x00\x000@'
p1380
tp1381
Rp1382
sa(dp1383
g7
I1
sg8
I296
sg9
I0
sg10
I2847
sg11
I3591
sg12
g13
(g17
S'\x00\x00\x00\x00\x00\x00H@'
p1384
tp1385
Rp1386
sa(dp1387
g7
I1
sg8
I256
sg9
I1
sg10
I5001
sg11
I3592
sg12
g13
(g17
S'\x00\x00\x00\x00\x00\x00\xf0?'
p1388
tp1389
Rp1390
sa(dp1391
g7
I1
sg8
I224
sg9
I2
sg10
I5320
sg11
I3593
sg12
g13
(g17
S'\x00\x00\x00\x00\x00\x00\x14@'
p1392
tp1393
Rp1394
sa(dp1395
g7
I1
sg8
I214
sg9
I3
sg10
I5654
sg11
I3594
sg12
g13
(g17
S'\x00\x00\x00\x00\x00\x00\x08@'
p1396
tp1397
Rp1398
sa(dp1399
g7
I1
sg8
I276
sg9
I4
sg10
I4754
sg11
I3595
sg12
g13
(g17
S'\x00\x00\x00\x00\x00\x001@'
p1400
tp1401
Rp1402
sa(dp1403
g7
I1
sg8
I219
sg9
I5
sg10
I4663
sg11
I3596
sg12
g13
(g17
S'\x00\x00\x00\x00\x00\x000@'
p1404
tp1405
Rp1406
sa(dp1407
g7
I1
sg8
I225
sg9
I7
sg10
I3585
sg11
I3597
sg12
g13
(g17
S'\x00\x00\x00\x00\x00\x00R@'
p1408
tp1409
Rp1410
sa(dp1411
g7
I1
sg8
I204
sg9
I10
sg10
I5139
sg11
I3598
sg12
g13
(g17
S'\x00\x00\x00\x00\x00\x00\x08@'
p1412
tp1413
Rp1414
sa(dp1415
g7
I1
sg8
I204
sg9
I11
sg10
I4519
sg11
I3599
sg12
g13
(g17
S'\x00\x00\x00\x00\x00\x80J@'
p1416
tp1417
Rp1418
sa(dp1419
g7
I1
sg8
I289
sg9
I12
sg10
I4914
sg11
I3600
sg12
g13
(g17
S'\x00\x00\x00\x00\x00\x00 @'
p1420
tp1421
Rp1422
sa(dp1423
g7
I1
sg8
I210
sg9
I14
sg10
I3955
sg11
I3601
sg12
g13
(g17
S'\x00\x00\x00\x00\x00\x00@@'
p1424
tp1425
Rp1426
sa(dp1427
g7
I1
sg8
I254
sg9
I15
sg10
I4849
sg11
I3602
sg12
g13
(g17
S'\x00\x00\x00\x00\x00\x00 @'
p1428
tp1429
Rp1430
sa(dp1431
g7
I2
sg8
I260
sg9
I0
sg10
I5674
sg11
I3603
sg12
g13
(g17
S'\x00\x00\x00\x00\x00\x009@'
p1432
tp1433
Rp1434
sa(dp1435
g7
I2
sg8
I207
sg9
I1
sg10
I4987
sg11
I3604
sg12
g13
(g17
S'\x00\x00\x00\x00\x00\x00\x14@'
p1436
tp1437
Rp1438
sa(dp1439
g7
I2
sg8
I268
sg9
I2
sg10
I5415
sg11
I3605
sg12
g13
(g17
S'\x00\x00\x00\x00\x00\x00*@'
p1440
tp1441
Rp1442
sa(dp1443
g7
I2
sg8
I255
sg9
I3
sg10
I4645
sg11
I3606
sg12
g13
(g17
S'\x00\x00\x00\x00\x00\x006@'
p1444
tp1445
Rp1446
sa(dp1447
g7
I2
sg8
I229
sg9
I5
sg10
I3052
sg11
I3607
sg12
g13
(g17
S'\x00\x00\x00\x00\x00\x80W@'
p1448
tp1449
Rp1450
sa(dp1451
g7
I2
sg8
I238
sg9
I6
sg10
I4781
sg11
I3608
sg12
g13
(g17
S'\x00\x00\x00\x00\x00\xc0W@'
p1452
tp1453
Rp1454
sa(dp1455
g7
I2
sg8
I222
sg9
I8
sg10
I4887
sg11
I3609
sg12
g13
(g17
S'\x00\x00\x00\x00\x00\x00$@'
p1456
tp1457
Rp1458
sa(dp1459
g7
I2
sg8
I216
sg9
I9
sg10
I5796
sg11
I3610
sg12
g13
(g17
S'\x00\x00\x00\x00\x00\x00\xf0?'
p1460
tp1461
Rp1462
sa(dp1463
g7
I2
sg8
I248
sg9
I10
sg10
I3980
sg11
I3611
sg12
g13
(g17
S'\x00\x00\x00\x00\x00\x80J@'
p1464
tp1465
Rp1466
sa(dp1467
g7
I2
sg8
I298
sg9
I11
sg10
I5243
sg11
I3612
sg12
g13
(g17
S'\x00\x00\x00\x00\x00\x00\x10@'
p1468
tp1469
Rp1470
sa(dp1471
g7
I2
sg8
I223
sg9
I13
sg10
I3593
sg11
I3613
sg12
g13
(g17
S'\x00\x00\x00\x00\x00\x80R@'
p1472
tp1473
Rp1474
sa(dp1475
g7
I2
sg8
I248
sg9
I14
sg10
I5206
sg11
I3614
sg12
g13
(g17
S'\x00\x00\x00\x00\x00\x00\x14@'
p1476
tp1477
Rp1478
sa(dp1479
g7
I2
sg8
I280
sg9
I15
sg10
I5007
sg11
I3615
sg12
g13
(g17
S'\x00\x00\x00\x00\x00\x00&@'
p1480
tp1481
Rp1482
sa(dp1483
g7
I3
sg8
I217
sg9
I2
sg10
I5138
sg11
I3616
sg12
g13
(g17
S'\x00\x00\x00\x00\x00\x00\x1c@'
p1484
tp1485
Rp1486
sa(dp1487
g7
I3
sg8
I213
sg9
I6
sg10
I4902
sg11
I3617
sg12
g13
(g17
S'\x00\x00\x00\x00\x00\x00(@'
p1488
tp1489
Rp1490
sa(dp1491
g7
I3
sg8
I286
sg9
I8
sg10
I3653
sg11
I3618
sg12
g13
(g17
S'\x00\x00\x00\x00\x00\xc0\\@'
p1492
tp1493
Rp1494
sa(dp1495
g7
I3
sg8
I260
sg9
I9
sg10
I4501
sg11
I3619
sg12
g13
(g17
S'\x00\x00\x00\x00\x00\x003@'
p1496
tp1497
Rp1498
sa(dp1499
g7
I3
sg8
I283
sg9
I10
sg10
I4729
sg11
I3620
sg12
g13
(g17
S'\x00\x00\x00\x00\x00\x00&@'
p1500
tp1501
Rp1502
sa(dp1503
g7
I3
sg8
I272
sg9
I11
sg10
I4634
sg11
I3621
sg12
g13
(g17
S'\x00\x00\x00\x00\x00\x008@'
p1504
tp1505
Rp1506
sa(dp1507
g7
I3
sg8
I270
sg9
I12
sg10
I4350
sg11
I3622
sg12
g13
(g17
S'\x00\x00\x00\x00\x00\x00;@'
p1508
tp1509
Rp1510
sa(dp1511
g7
I3
sg8
I224
sg9
I13
sg10
I4985
sg11
I3623
sg12
g13
(g17
S'\x00\x00\x00\x00\x00\x00$@'
p1512
tp1513
Rp1514
sa(dp1515
g7
I3
sg8
I221
sg9
I14
sg10
I5060
sg11
I3624
sg12
g13
(g17
S'\x00\x00\x00\x00\x00\x00"@'
p1516
tp1517
Rp1518
sa(dp1519
g7
I3
sg8
I208
sg9
I15
sg10
I3058
sg11
I3625
sg12
g13
(g17
S'\x00\x00\x00\x00\x00@V@'
p1520
tp1521
Rp1522
sa(dp1523
g7
I4
sg8
I243
sg9
I0
sg10
I3925
sg11
I3626
sg12
g13
(g17
S'\x00\x00\x00\x00\x00\x80@@'
p1524
tp1525
Rp1526
sa(dp1527
g7
I4
sg8
I206
sg9
I1
sg10
I4664
sg11
I3627
sg12
g13
(g17
S'\x00\x00\x00\x00\x00\x00(@'
p1528
tp1529
Rp1530
sa(dp1531
g7
I4
sg8
I218
sg9
I2
sg10
I3478
sg11
I3628
sg12
g13
(g17
S'\x00\x00\x00\x00\x00\x00A@'
p1532
tp1533
Rp1534
sa(dp1535
g7
I4
sg8
I216
sg9
I3
sg10
I4542
sg11
I3629
sg12
g13
(g17
S'\x00\x00\x00\x00\x00\x002@'
p1536
tp1537
Rp1538
sa(dp1539
g7
I4
sg8
I254
sg9
I5
sg10
I5030
sg11
I3630
sg12
g13
(g17
S'\x00\x00\x00\x00\x00\x00$@'
p1540
tp1541
Rp1542
sa(dp1543
g7
I4
sg8
I223
sg9
I8
sg10
I4980
sg11
I3631
sg12
g13
(g17
S'\x00\x00\x00\x00\x00\x00 @'
p1544
tp1545
Rp1546
sa(dp1547
g7
I4
sg8
I205
sg9
I11
sg10
I4919
sg11
I3632
sg12
g13
(g17
S'\x00\x00\x00\x00\x00\x00.@'
p1548
tp1549
Rp1550
sa(dp1551
g7
I4
sg8
I240
sg9
I12
sg10
I4766
sg11
I3633
sg12
g13
(g17
S'\x00\x00\x00\x00\x00\x00"@'
p1552
tp1553
Rp1554
sa(dp1555
g7
I4
sg8
I257
sg9
I13
sg10
I2988
sg11
I3634
sg12
g13
(g17
S'\x00\x00\x00\x00\x00\x80T@'
p1556
tp1557
Rp1558
sa(dp1559
g7
I4
sg8
I228
sg9
I14
sg10
I4359
sg11
I3635
sg12
g13
(g17
S'\x00\x00\x00\x00\x00\x000@'
p1560
tp1561
Rp1562
sa(dp1563
g7
I4
sg8
I243
sg9
I15
sg10
I5112
sg11
I3636
sg12
g13
(g17
S'\x00\x00\x00\x00\x00\x00\x1c@'
p1564
tp1565
Rp1566
sa(dp1567
g7
I5
sg8
I248
sg9
I1
sg10
I4082
sg11
I3637
sg12
g13
(g17
S'\x00\x00\x00\x00\x00\xc0U@'
p1568
tp1569
Rp1570
sa(dp1571
g7
I5
sg8
I237
sg9
I2
sg10
I4957
sg11
I3638
sg12
g13
(g17
S'\x00\x00\x00\x00\x00\x00\x14@'
p1572
tp1573
Rp1574
sa(dp1575
g7
I5
sg8
I238
sg9
I4
sg10
I4868
sg11
I3639
sg12
g13
(g17
S'\x00\x00\x00\x00\x00\x00"@'
p1576
tp1577
Rp1578
sa(dp1579
g7
I5
sg8
I210
sg9
I7
sg10
I4392
sg11
I3640
sg12
g13
(g17
S'\x00\x00\x00\x00\x00\x005@'
p1580
tp1581
Rp1582
sa(dp1583
g7
I5
sg8
I275
sg9
I9
sg10
I5229
sg11
I3641
sg12
g13
(g17
S'\x00\x00\x00\x00\x00@Z@'
p1584
tp1585
Rp1586
sa(dp1587
g7
I5
sg8
I244
sg9
I12
sg10
I3232
sg11
I3642
sg12
g13
(g17
S'\x00\x00\x00\x00\x00\xe0c@'
p1588
tp1589
Rp1590
sa(dp1591
g7
I5
sg8
I203
sg9
I13
sg10
I5057
sg11
I3643
sg12
g13
(g17
S'\x00\x00\x00\x00\x00\x00\x00@'
p1592
tp1593
Rp1594
sa(dp1595
g7
I5
sg8
I216
sg9
I14
sg10
I4533
sg11
I3644
sg12
g13
(g17
S'\x00\x00\x00\x00\x00\x00.@'
p1596
tp1597
Rp1598
sa(dp1599
g7
I6
sg8
I208
sg9
I0
sg10
I4895
sg11
I3645
sg12
g13
(g17
S'\x00\x00\x00\x00\x00\x00 @'
p1600
tp1601
Rp1602
sa(dp1603
g7
I6
sg8
I266
sg9
I2
sg10
I4118
sg11
I3646
sg12
g13
(g17
S'\x00\x00\x00\x00\x00@Z@'
p1604
tp1605
Rp1606
sa(dp1607
g7
I6
sg8
I266
sg9
I3
sg10
I3526
sg11
I3647
sg12
g13
(g17
S'\x00\x00\x00\x00\x00\x80P@'
p1608
tp1609
Rp1610
sa(dp1611
g7
I6
sg8
I258
sg9
I4
sg10
I5020
sg11
I3648
sg12
g13
(g17
S'\x00\x00\x00\x00\x00\x00 @'
p1612
tp1613
Rp1614
sa(dp1615
g7
I6
sg8
I203
sg9
I6
sg10
I5135
sg11
I3649
sg12
g13
(g17
S'\x00\x00\x00\x00\x00\x002@'
p1616
tp1617
Rp1618
sa(dp1619
g7
I6
sg8
I229
sg9
I8
sg10
I4394
sg11
I3650
sg12
g13
(g17
S'\x00\x00\x00\x00\x00\x00<@'
p1620
tp1621
Rp1622
sa(dp1623
g7
I6
sg8
I288
sg9
I9
sg10
I2867
sg11
I3651
sg12
g13
(g17
S'\x00\x00\x00\x00\x00\x00J@'
p1624
tp1625
Rp1626
sa(dp1627
g7
I6
sg8
I219
sg9
I12
sg10
I4660
sg11
I3652
sg12
g13
(g17
S'\x00\x00\x00\x00\x00\x00.@'
p1628
tp1629
Rp1630
sa(dp1631
g7
I6
sg8
I228
sg9
I13
sg10
I4790
sg11
I3653
sg12
g13
(g17
S'\x00\x00\x00\x00\x00\x00*@'
p1632
tp1633
Rp1634
sa(dp1635
g7
I6
sg8
I206
sg9
I15
sg10
I4558
sg11
I3654
sg12
g13
(g17
S'\x00\x00\x00\x00\x00\x004@'
p1636
tp1637
Rp1638
sa(dp1639
g7
I7
sg8
I251
sg9
I0
sg10
I4366
sg11
I3655
sg12
g13
(g17
S'\x00\x00\x00\x00\x00\x00:@'
p1640
tp1641
Rp1642
sa(dp1643
g7
I7
sg8
I288
sg9
I1
sg10
I5313
sg11
I3656
sg12
g13
(g17
S'\x00\x00\x00\x00\x00\x00\x10@'
p1644
tp1645
Rp1646
sa(dp1647
g7
I7
sg8
I255
sg9
I5
sg10
I5289
sg11
I3657
sg12
g13
(g17
S'\x00\x00\x00\x00\x00\x00\x14@'
p1648
tp1649
Rp1650
sa(dp1651
g7
I7
sg8
I280
sg9
I7
sg10
I4653
sg11
I3658
sg12
g13
(g17
S'\x00\x00\x00\x00\x00\x00Q@'
p1652
tp1653
Rp1654
sa(dp1655
g7
I7
sg8
I239
sg9
I8
sg10
I5036
sg11
I3659
sg12
g13
(g17
S'\x00\x00\x00\x00\x00\x00\x1c@'
p1656
tp1657
Rp1658
sa(dp1659
g7
I7
sg8
I251
sg9
I9
sg10
I4849
sg11
I3660
sg12
g13
(g17
S'\x00\x00\x00\x00\x00\x00\x1c@'
p1660
tp1661
Rp1662
sa(dp1663
g7
I7
sg8
I230
sg9
I10
sg10
I5175
sg11
I3661
sg12
g13
(g17
S'\x00\x00\x00\x00\x00\x00\x00@'
p1664
tp1665
Rp1666
sa(dp1667
g7
I7
sg8
I251
sg9
I11
sg10
I3021
sg11
I3662
sg12
g13
(g17
S'\x00\x00\x00\x00\x00\xc0V@'
p1668
tp1669
Rp1670
sa(dp1671
g7
I7
sg8
I240
sg9
I13
sg10
I5204
sg11
I3663
sg12
g13
(g17
S'\x00\x00\x00\x00\x00\x00.@'
p1672
tp1673
Rp1674
sa(dp1675
g7
I7
sg8
I209
sg9
I14
sg10
I3640
sg11
I3664
sg12
g13
(g17
S'\x00\x00\x00\x00\x00@U@'
p1676
tp1677
Rp1678
sa(dp1679
g7
I7
sg8
I204
sg9
I15
sg10
I4030
sg11
I3665
sg12
g13
(g17
S'\x00\x00\x00\x00\x00\x80K@'
p1680
tp1681
Rp1682
sa(dp1683
g7
I8
sg8
I299
sg9
I1
sg10
I2904
sg11
I3666
sg12
g13
(g17
S'\x00\x00\x00\x00\x00\x00Q@'
p1684
tp1685
Rp1686
sa(dp1687
g7
I8
sg8
I283
sg9
I3
sg10
I4989
sg11
I3667
sg12
g13
(g17
S'\x00\x00\x00\x00\x00\x00\x18@'
p1688
tp1689
Rp1690
sa(dp1691
g7
I8
sg8
I233
sg9
I4
sg10
I4055
sg11
I3668
sg12
g13
(g17
S'\x00\x00\x00\x00\x00@R@'
p1692
tp1693
Rp1694
sa(dp1695
g7
I8
sg8
I230
sg9
I5
sg10
I4513
sg11
I3669
sg12
g13
(g17
S'\x00\x00\x00\x00\x00\x00*@'
p1696
tp1697
Rp1698
sa(dp1699
g7
I8
sg8
I259
sg9
I6
sg10
I5409
sg11
I3670
sg12
g13
(g17
S'\x00\x00\x00\x00\x00\x00 @'
p1700
tp1701
Rp1702
sa(dp1703
g7
I8
sg8
I239
sg9
I7
sg10
I4882
sg11
I3671
sg12
g13
(g17
S'\x00\x00\x00\x00\x00\x00,@'
p1704
tp1705
Rp1706
sa(dp1707
g7
I8
sg8
I264
sg9
I8
sg10
I5091
sg11
I3672
sg12
g13
(g17
S'\x00\x00\x00\x00\x00\x00\x1c@'
p1708
tp1709
Rp1710
sa(dp1711
g7
I8
sg8
I297
sg9
I11
sg10
I4912
sg11
I3673
sg12
g13
(g17
S'\x00\x00\x00\x00\x00\x00$@'
p1712
tp1713
Rp1714
sa(dp1715
g7
I8
sg8
I289
sg9
I13
sg10
I5312
sg11
I3674
sg12
g13
(g17
S'\x00\x00\x00\x00\x00\x00"@'
p1716
tp1717
Rp1718
sa(dp1719
g7
I8
sg8
I277
sg9
I14
sg10
I4738
sg11
I3675
sg12
g13
(g17
S'\x00\x00\x00\x00\x00\x00(@'
p1720
tp1721
Rp1722
sa(dp1723
g7
I8
sg8
I253
sg9
I15
sg10
I4322
sg11
I3676
sg12
g13
(g17
S'\x00\x00\x00\x00\x00@d@'
p1724
tp1725
Rp1726
sa(dp1727
g7
I9
sg8
I203
sg9
I3
sg10
I3977
sg11
I3677
sg12
g13
(g17
S'\x00\x00\x00\x00\x00\x80B@'
p1728
tp1729
Rp1730
sa(dp1731
g7
I9
sg8
I290
sg9
I4
sg10
I4640
sg11
I3678
sg12
g13
(g17
S'\x00\x00\x00\x00\x00\xc0P@'
p1732
tp1733
Rp1734
sa(dp1735
g7
I9
sg8
I222
sg9
I5
sg10
I5124
sg11
I3679
sg12
g13
(g17
S'\x00\x00\x00\x00\x00\x00\x10@'
p1736
tp1737
Rp1738
sa(dp1739
g7
I9
sg8
I296
sg9
I7
sg10
I4970
sg11
I3680
sg12
g13
(g17
S'\x00\x00\x00\x00\x00\x00\x10@'
p1740
tp1741
Rp1742
sa(dp1743
g7
I9
sg8
I269
sg9
I10
sg10
I3072
sg11
I3681
sg12
g13
(g17
S'\x00\x00\x00\x00\x00\x80\\@'
p1744
tp1745
Rp1746
sa(dp1747
g7
I9
sg8
I217
sg9
I11
sg10
I3647
sg11
I3682
sg12
g13
(g17
S'\x00\x00\x00\x00\x00\x80V@'
p1748
tp1749
Rp1750
sa(dp1751
g7
I9
sg8
I228
sg9
I12
sg10
I4878
sg11
I3683
sg12
g13
(g17
S'\x00\x00\x00\x00\x00\x00"@'
p1752
tp1753
Rp1754
sa(dp1755
g7
I9
sg8
I235
sg9
I13
sg10
I4364
sg11
I3684
sg12
g13
(g17
S'\x00\x00\x00\x00\x00\x004@'
p1756
tp1757
Rp1758
sa(dp1759
g7
I9
sg8
I264
sg9
I14
sg10
I5150
sg11
I3685
sg12
g13
(g17
S'\x00\x00\x00\x00\x00\x00\x14@'
p1760
tp1761
Rp1762
sa(dp1763
g7
I9
sg8
I237
sg9
I15
sg10
I4787
sg11
I3686
sg12
g13
(g17
S'\x00\x00\x00\x00\x00\x00.@'
p1764
tp1765
Rp1766
sa(dp1767
g7
I10
sg8
I229
sg9
I0
sg10
I4704
sg11
I3687
sg12
g13
(g17
S'\x00\x00\x00\x00\x00\x80@@'
p1768
tp1769
Rp1770
sa(dp1771
g7
I10
sg8
I234
sg9
I1
sg10
I4778
sg11
I3688
sg12
g13
(g17
S'\x00\x00\x00\x00\x00\x00&@'
p1772
tp1773
Rp1774
sa(dp1775
g7
I10
sg8
I234
sg9
I2
sg10
I4359
sg11
I3689
sg12
g13
(g17
S'\x00\x00\x00\x00\x00\x002@'
p1776
tp1777
Rp1778
sa(dp1779
g7
I10
sg8
I258
sg9
I4
sg10
I3462
sg11
I3690
sg12
g13
(g17
S'\x00\x00\x00\x00\x00\x00E@'
p1780
tp1781
Rp1782
sa(dp1783
g7
I10
sg8
I287
sg9
I5
sg10
I4813
sg11
I3691
sg12
g13
(g17
S'\x00\x00\x00\x00\x00\x00\x1c@'
p1784
tp1785
Rp1786
sa(dp1787
g7
I10
sg8
I256
sg9
I6
sg10
I5213
sg11
I3692
sg12
g13
(g17
S'\x00\x00\x00\x00\x00\x00.@'
p1788
tp1789
Rp1790
sa(dp1791
g7
I10
sg8
I294
sg9
I10
sg10
I4473
sg11
I3693
sg12
g13
(g17
S'\x00\x00\x00\x00\x00\x005@'
p1792
tp1793
Rp1794
sa(dp1795
g7
I10
sg8
I285
sg9
I11
sg10
I4972
sg11
I3694
sg12
g13
(g17
S'\x00\x00\x00\x00\x00\x00\xf0?'
p1796
tp1797
Rp1798
sa(dp1799
g7
I10
sg8
I239
sg9
I12
sg10
I3896
sg11
I3695
sg12
g13
(g17
S'\x00\x00\x00\x00\x00\x006@'
p1800
tp1801
Rp1802
sa(dp1803
g7
I10
sg8
I286
sg9
I14
sg10
I3028
sg11
I3696
sg12
g13
(g17
S'\x00\x00\x00\x00\x00@Z@'
p1804
tp1805
Rp1806
sa(dp1807
g7
I11
sg8
I260
sg9
I2
sg10
I4761
sg11
I3697
sg12
g13
(g17
S'\x00\x00\x00\x00\x00\x00,@'
p1808
tp1809
Rp1810
sa(dp1811
g7
I11
sg8
I289
sg9
I6
sg10
I2875
sg11
I3698
sg12
g13
(g17
S'\x00\x00\x00\x00\x00\x80K@'
p1812
tp1813
Rp1814
sa(dp1815
g7
I11
sg8
I273
sg9
I7
sg10
I5131
sg11
I3699
sg12
g13
(g17
S'\x00\x00\x00\x00\x00\x00.@'
p1816
tp1817
Rp1818
sa(dp1819
g7
I11
sg8
I213
sg9
I8
sg10
I4533
sg11
I3700
sg12
g13
(g17
S'\x00\x00\x00\x00\x00\x00,@'
p1820
tp1821
Rp1822
sa(dp1823
g7
I11
sg8
I230
sg9
I9
sg10
I3610
sg11
I3701
sg12
g13
(g17
S'\x00\x00\x00\x00\x00\x80T@'
p1824
tp1825
Rp1826
sa(dp1827
g7
I11
sg8
I209
sg9
I10
sg10
I4656
sg11
I3702
sg12
g13
(g17
S'\x00\x00\x00\x00\x00\x80L@'
p1828
tp1829
Rp1830
sa(dp1831
g7
I11
sg8
I248
sg9
I11
sg10
I4079
sg11
I3703
sg12
g13
(g17
S'\x00\x00\x00\x00\x00\x80U@'
p1832
tp1833
Rp1834
sa(dp1835
g7
I11
sg8
I254
sg9
I12
sg10
I5009
sg11
I3704
sg12
g13
(g17
S'\x00\x00\x00\x00\x00\x00\x08@'
p1836
tp1837
Rp1838
sa(dp1839
g7
I11
sg8
I257
sg9
I13
sg10
I4861
sg11
I3705
sg12
g13
(g17
S'\x00\x00\x00\x00\x00\x00*@'
p1840
tp1841
Rp1842
sa(dp1843
g7
I12
sg8
I294
sg9
I0
sg10
I4718
sg11
I3706
sg12
g13
(g17
S'\x00\x00\x00\x00\x00\x00&@'
p1844
tp1845
Rp1846
sa(dp1847
g7
I12
sg8
I280
sg9
I2
sg10
I4560
sg11
I3707
sg12
g13
(g17
S'\x00\x00\x00\x00\x00\x80B@'
p1848
tp1849
Rp1850
sa(dp1851
g7
I12
sg8
I265
sg9
I4
sg10
I4325
sg11
I3708
sg12
g13
(g17
S'\x00\x00\x00\x00\x00\x001@'
p1852
tp1853
Rp1854
sa(dp1855
g7
I12
sg8
I229
sg9
I5
sg10
I3569
sg11
I3709
sg12
g13
(g17
S'\x00\x00\x00\x00\x00\x00Q@'
p1856
tp1857
Rp1858
sa(dp1859
g7
I12
sg8
I214
sg9
I6
sg10
I5049
sg11
I3710
sg12
g13
(g17
S'\x00\x00\x00\x00\x00\x00\x08@'
p1860
tp1861
Rp1862
sa(dp1863
g7
I12
sg8
I203
sg9
I8
sg10
I3030
sg11
I3711
sg12
g13
(g17
S'\x00\x00\x00\x00\x00\x80S@'
p1864
tp1865
Rp1866
sa(dp1867
g7
I12
sg8
I246
sg9
I9
sg10
I4948
sg11
I3712
sg12
g13
(g17
S'\x00\x00\x00\x00\x00\x00\x14@'
p1868
tp1869
Rp1870
sa(dp1871
g7
I12
sg8
I209
sg9
I13
sg10
I4052
sg11
I3713
sg12
g13
(g17
S'\x00\x00\x00\x00\x00\x00P@'
p1872
tp1873
Rp1874
sa(dp1875
g7
I12
sg8
I201
sg9
I14
sg10
I4899
sg11
I3714
sg12
g13
(g17
S'\x00\x00\x00\x00\x00\x00\x1c@'
p1876
tp1877
Rp1878
sa(dp1879
g7
I13
sg8
I257
sg9
I1
sg10
I3445
sg11
I3715
sg12
g13
(g17
S'\x00\x00\x00\x00\x00\x00B@'
p1880
tp1881
Rp1882
sa(dp1883
g7
I13
sg8
I240
sg9
I2
sg10
I4863
sg11
I3716
sg12
g13
(g17
S'\x00\x00\x00\x00\x00\x00 @'
p1884
tp1885
Rp1886
sa(dp1887
g7
I13
sg8
I252
sg9
I3
sg10
I4772
sg11
I3717
sg12
g13
(g17
S'\x00\x00\x00\x00\x00\x00.@'
p1888
tp1889
Rp1890
sa(dp1891
g7
I13
sg8
I249
sg9
I4
sg10
I3083
sg11
I3718
sg12
g13
(g17
S'\x00\x00\x00\x00\x00\xc0[@'
p1892
tp1893
Rp1894
sa(dp1895
g7
I13
sg8
I290
sg9
I6
sg10
I4046
sg11
I3719
sg12
g13
(g17
S'\x00\x00\x00\x00\x00@V@'
p1896
tp1897
Rp1898
sa(dp1899
g7
I13
sg8
I240
sg9
I7
sg10
I5322
sg11
I3720
sg12
g13
(g17
S'\x00\x00\x00\x00\x00\x00&@'
p1900
tp1901
Rp1902
sa(dp1903
g7
I13
sg8
I266
sg9
I8
sg10
I4613
sg11
I3721
sg12
g13
(g17
S'\x00\x00\x00\x00\x00\x00.@'
p1904
tp1905
Rp1906
sa(dp1907
g7
I13
sg8
I220
sg9
I9
sg10
I4430
sg11
I3722
sg12
g13
(g17
S'\x00\x00\x00\x00\x00\x80B@'
p1908
tp1909
Rp1910
sa(dp1911
g7
I13
sg8
I295
sg9
I11
sg10
I5309
sg11
I3723
sg12
g13
(g17
S'\x00\x00\x00\x00\x00\x00\x14@'
p1912
tp1913
Rp1914
sa(dp1915
g7
I13
sg8
I224
sg9
I13
sg10
I4519
sg11
I3724
sg12
g13
(g17
S'\x00\x00\x00\x00\x00\x00*@'
p1916
tp1917
Rp1918
sa(dp1919
g7
I13
sg8
I229
sg9
I14
sg10
I5129
sg11
I3725
sg12
g13
(g17
S'\x00\x00\x00\x00\x00\x00 @'
p1920
tp1921
Rp1922
sa(dp1923
g7
I13
sg8
I253
sg9
I15
sg10
I4965
sg11
I3726
sg12
g13
(g17
S'\x00\x00\x00\x00\x00\x00*@'
p1924
tp1925
Rp1926
sa(dp1927
g7
I14
sg8
I292
sg9
I1
sg10
I4316
sg11
I3727
sg12
g13
(g17
S'\x00\x00\x00\x00\x00\x007@'
p1928
tp1929
Rp1930
sa(dp1931
g7
I14
sg8
I238
sg9
I2
sg10
I5064
sg11
I3728
sg12
g13
(g17
S'\x00\x00\x00\x00\x00\x000@'
p1932
tp1933
Rp1934
sa(dp1935
g7
I14
sg8
I285
sg9
I3
sg10
I2918
sg11
I3729
sg12
g13
(g17
S'\x00\x00\x00\x00\x00\x00Q@'
p1936
tp1937
Rp1938
sa(dp1939
g7
I14
sg8
I210
sg9
I6
sg10
I3696
sg11
I3730
sg12
g13
(g17
S'\x00\x00\x00\x00\x00\x00Z@'
p1940
tp1941
Rp1942
sa(dp1943
g7
I14
sg8
I202
sg9
I7
sg10
I4026
sg11
I3731
sg12
g13
(g17
S'\x00\x00\x00\x00\x00\x80J@'
p1944
tp1945
Rp1946
sa(dp1947
g7
I14
sg8
I283
sg9
I10
sg10
I4814
sg11
I3732
sg12
g13
(g17
S'\x00\x00\x00\x00\x00\x00\x18@'
p1948
tp1949
Rp1950
sa(dp1951
g7
I14
sg8
I273
sg9
I11
sg10
I5064
sg11
I3733
sg12
g13
(g17
S'\x00\x00\x00\x00\x00\x00:@'
p1952
tp1953
Rp1954
sa(dp1955
g7
I14
sg8
I285
sg9
I12
sg10
I4470
sg11
I3734
sg12
g13
(g17
S'\x00\x00\x00\x00\x00\x001@'
p1956
tp1957
Rp1958
sa(dp1959
g7
I14
sg8
I236
sg9
I14
sg10
I4967
sg11
I3735
sg12
g13
(g17
S'\x00\x00\x00\x00\x00\x00 @'
p1960
tp1961
Rp1962
sa(dp1963
g7
I15
sg8
I241
sg9
I0
sg10
I4556
sg11
I3736
sg12
g13
(g17
S'\x00\x00\x00\x00\x00\x00?@'
p1964
tp1965
Rp1966
sa(dp1967
g7
I15
sg8
I219
sg9
I1
sg10
I4881
sg11
I3737
sg12
g13
(g17
S'\x00\x00\x00\x00\x00\x00\x1c@'
p1968
tp1969
Rp1970
sa(dp1971
g7
I15
sg8
I204
sg9
I2
sg10
I3014
sg11
I3738
sg12
g13
(g17
S'\x00\x00\x00\x00\x00@R@'
p1972
tp1973
Rp1974
sa(dp1975
g7
I15
sg8
I286
sg9
I3
sg10
I5057
sg11
I3739
sg12
g13
(g17
S'\x00\x00\x00\x00\x00\x00\x08@'
p1976
tp1977
Rp1978
sa(dp1979
g7
I15
sg8
I235
sg9
I5
sg10
I4969
sg11
I3740
sg12
g13
(g17
S'\x00\x00\x00\x00\x00\x00T@'
p1980
tp1981
Rp1982
sa(dp1983
g7
I15
sg8
I249
sg9
I7
sg10
I5465
sg11
I3741
sg12
g13
(g17
S'\x00\x00\x00\x00\x00\x00\x14@'
p1984
tp1985
Rp1986
sa(dp1987
g7
I15
sg8
I260
sg9
I8
sg10
I5145
sg11
I3742
sg12
g13
(g17
S'\x00\x00\x00\x00\x00\x00\x00@'
p1988
tp1989
Rp1990
sa(dp1991
g7
I15
sg8
I228
sg9
I9
sg10
I3913
sg11
I3743
sg12
g13
(g17
S'\x00\x00\x00\x00\x00\x008@'
p1992
tp1993
Rp1994
sa(dp1995
g7
I15
sg8
I214
sg9
I10
sg10
I3635
sg11
I3744
sg12
g13
(g17
S'\x00\x00\x00\x00\x00@U@'
p1996
tp1997
Rp1998
sa(dp1999
g7
I15
sg8
I295
sg9
I13
sg10
I5357
sg11
I3745
sg12
g13
(g17
S'\x00\x00\x00\x00\x00\x00*@'
p2000
tp2001
Rp2002
sa(dp2003
g7
I15
sg8
I244
sg9
I14
sg10
I4656
sg11
I3746
sg12
g13
(g17
S'\x00\x00\x00\x00\x00\x006@'
p2004
tp2005
Rp2006
sa(dp2007
g7
I15
sg8
I246
sg9
I15
sg10
I5418
sg11
I3747
sg12
g13
(g17
S'\x00\x00\x00\x00\x00\x00(@'
p2008
tp2009
Rp2010
sa(dp2011
g7
I0
sg8
I346
sg9
I0
sg10
I3396
sg11
I3748
sg12
g13
(g17
S'\x00\x00\x00\x00\x00\x80B@'
p2012
tp2013
Rp2014
sa(dp2015
g7
I0
sg8
I316
sg9
I1
sg10
I4440
sg11
I3749
sg12
g13
(g17
S'\x00\x00\x00\x00\x00\x00*@'
p2016
tp2017
Rp2018
sa(dp2019
g7
I0
sg8
I384
sg9
I3
sg10
I5286
sg11
I3750
sg12
g13
(g17
S'\x00\x00\x00\x00\x00@[@'
p2020
tp2021
Rp2022
sa(dp2023
g7
I0
sg8
I329
sg9
I4
sg10
I5025
sg11
I3751
sg12
g13
(g17
S'\x00\x00\x00\x00\x00\x00\x14@'
p2024
tp2025
Rp2026
sa(dp2027
g7
I0
sg8
I373
sg9
I5
sg10
I3980
sg11
I3752
sg12
g13
(g17
S'\x00\x00\x00\x00\x00\xc0Q@'
p2028
tp2029
Rp2030
sa(dp2031
g7
I0
sg8
I361
sg9
I7
sg10
I2994
sg11
I3753
sg12
g13
(g17
S'\x00\x00\x00\x00\x00@V@'
p2032
tp2033
Rp2034
sa(dp2035
g7
I0
sg8
I381
sg9
I8
sg10
I4638
sg11
I3754
sg12
g13
(g17
S'\x00\x00\x00\x00\x00\x00$@'
p2036
tp2037
Rp2038
sa(dp2039
g7
I0
sg8
I340
sg9
I10
sg10
I4938
sg11
I3755
sg12
g13
(g17
S'\x00\x00\x00\x00\x00\x00\x18@'
p2040
tp2041
Rp2042
sa(dp2043
g7
I0
sg8
I370
sg9
I13
sg10
I4528
sg11
I3756
sg12
g13
(g17
S'\x00\x00\x00\x00\x00\x000@'
p2044
tp2045
Rp2046
sa(dp2047
g7
I1
sg8
I396
sg9
I0
sg10
I2795
sg11
I3757
sg12
g13
(g17
S'\x00\x00\x00\x00\x00\x00H@'
p2048
tp2049
Rp2050
sa(dp2051
g7
I1
sg8
I356
sg9
I1
sg10
I4902
sg11
I3758
sg12
g13
(g17
S'\x00\x00\x00\x00\x00\x00\xf0?'
p2052
tp2053
Rp2054
sa(dp2055
g7
I1
sg8
I324
sg9
I2
sg10
I5225
sg11
I3759
sg12
g13
(g17
S'\x00\x00\x00\x00\x00\x00\x14@'
p2056
tp2057
Rp2058
sa(dp2059
g7
I1
sg8
I314
sg9
I3
sg10
I5557
sg11
I3760
sg12
g13
(g17
S'\x00\x00\x00\x00\x00\x00\x08@'
p2060
tp2061
Rp2062
sa(dp2063
g7
I1
sg8
I376
sg9
I4
sg10
I4671
sg11
I3761
sg12
g13
(g17
S'\x00\x00\x00\x00\x00\x001@'
p2064
tp2065
Rp2066
sa(dp2067
g7
I1
sg8
I319
sg9
I5
sg10
I4579
sg11
I3762
sg12
g13
(g17
S'\x00\x00\x00\x00\x00\x000@'
p2068
tp2069
Rp2070
sa(dp2071
g7
I1
sg8
I325
sg9
I7
sg10
I3557
sg11
I3763
sg12
g13
(g17
S'\x00\x00\x00\x00\x00\x00R@'
p2072
tp2073
Rp2074
sa(dp2075
g7
I1
sg8
I304
sg9
I10
sg10
I5042
sg11
I3764
sg12
g13
(g17
S'\x00\x00\x00\x00\x00\x00\x08@'
p2076
tp2077
Rp2078
sa(dp2079
g7
I1
sg8
I304
sg9
I11
sg10
I4472
sg11
I3765
sg12
g13
(g17
S'\x00\x00\x00\x00\x00\x80J@'
p2080
tp2081
Rp2082
sa(dp2083
g7
I1
sg8
I389
sg9
I12
sg10
I4822
sg11
I3766
sg12
g13
(g17
S'\x00\x00\x00\x00\x00\x00 @'
p2084
tp2085
Rp2086
sa(dp2087
g7
I1
sg8
I310
sg9
I14
sg10
I3887
sg11
I3767
sg12
g13
(g17
S'\x00\x00\x00\x00\x00\x00@@'
p2088
tp2089
Rp2090
sa(dp2091
g7
I1
sg8
I354
sg9
I15
sg10
I4757
sg11
I3768
sg12
g13
(g17
S'\x00\x00\x00\x00\x00\x00 @'
p2092
tp2093
Rp2094
sa(dp2095
g7
I2
sg8
I360
sg9
I0
sg10
I5599
sg11
I3769
sg12
g13
(g17
S'\x00\x00\x00\x00\x00\x009@'
p2096
tp2097
Rp2098
sa(dp2099
g7
I2
sg8
I307
sg9
I1
sg10
I4892
sg11
I3770
sg12
g13
(g17
S'\x00\x00\x00\x00\x00\x00\x14@'
p2100
tp2101
Rp2102
sa(dp2103
g7
I2
sg8
I368
sg9
I2
sg10
I5503
sg11
I3771
sg12
g13
(g17
S'\x00\x00\x00\x00\x00\x00*@'
p2104
tp2105
Rp2106
sa(dp2107
g7
I2
sg8
I355
sg9
I3
sg10
I4567
sg11
I3772
sg12
g13
(g17
S'\x00\x00\x00\x00\x00\x006@'
p2108
tp2109
Rp2110
sa(dp2111
g7
I2
sg8
I329
sg9
I5
sg10
I3046
sg11
I3773
sg12
g13
(g17
S'\x00\x00\x00\x00\x00\x80W@'
p2112
tp2113
Rp2114
sa(dp2115
g7
I2
sg8
I338
sg9
I6
sg10
I5401
sg11
I3774
sg12
g13
(g17
S'\x00\x00\x00\x00\x00\xc0W@'
p2116
tp2117
Rp2118
sa(dp2119
g7
I2
sg8
I322
sg9
I8
sg10
I4797
sg11
I3775
sg12
g13
(g17
S'\x00\x00\x00\x00\x00\x00$@'
p2120
tp2121
Rp2122
sa(dp2123
g7
I2
sg8
I316
sg9
I9
sg10
I5697
sg11
I3776
sg12
g13
(g17
S'\x00\x00\x00\x00\x00\x00\xf0?'
p2124
tp2125
Rp2126
sa(dp2127
g7
I2
sg8
I348
sg9
I10
sg10
I3933
sg11
I3777
sg12
g13
(g17
S'\x00\x00\x00\x00\x00\x80J@'
p2128
tp2129
Rp2130
sa(dp2131
g7
I2
sg8
I398
sg9
I11
sg10
I5147
sg11
I3778
sg12
g13
(g17
S'\x00\x00\x00\x00\x00\x00\x10@'
p2132
tp2133
Rp2134
sa(dp2135
g7
I2
sg8
I323
sg9
I13
sg10
I3567
sg11
I3779
sg12
g13
(g17
S'\x00\x00\x00\x00\x00\x80R@'
p2136
tp2137
Rp2138
sa(dp2139
g7
I2
sg8
I348
sg9
I14
sg10
I5111
sg11
I3780
sg12
g13
(g17
S'\x00\x00\x00\x00\x00\x00\x14@'
p2140
tp2141
Rp2142
sa(dp2143
g7
I2
sg8
I380
sg9
I15
sg10
I4918
sg11
I3781
sg12
g13
(g17
S'\x00\x00\x00\x00\x00\x00&@'
p2144
tp2145
Rp2146
sa(dp2147
g7
I3
sg8
I317
sg9
I2
sg10
I5045
sg11
I3782
sg12
g13
(g17
S'\x00\x00\x00\x00\x00\x00\x1c@'
p2148
tp2149
Rp2150
sa(dp2151
g7
I3
sg8
I313
sg9
I6
sg10
I4814
sg11
I3783
sg12
g13
(g17
S'\x00\x00\x00\x00\x00\x00(@'
p2152
tp2153
Rp2154
sa(dp2155
g7
I3
sg8
I386
sg9
I8
sg10
I3693
sg11
I3784
sg12
g13
(g17
S'\x00\x00\x00\x00\x00\xc0\\@'
p2156
tp2157
Rp2158
sa(dp2159
g7
I3
sg8
I360
sg9
I9
sg10
I4420
sg11
I3785
sg12
g13
(g17
S'\x00\x00\x00\x00\x00\x003@'
p2160
tp2161
Rp2162
sa(dp2163
g7
I3
sg8
I383
sg9
I10
sg10
I4640
sg11
I3786
sg12
g13
(g17
S'\x00\x00\x00\x00\x00\x00&@'
p2164
tp2165
Rp2166
sa(dp2167
g7
I3
sg8
I372
sg9
I11
sg10
I4558
sg11
I3787
sg12
g13
(g17
S'\x00\x00\x00\x00\x00\x008@'
p2168
tp2169
Rp2170
sa(dp2171
g7
I3
sg8
I370
sg9
I12
sg10
I4277
sg11
I3788
sg12
g13
(g17
S'\x00\x00\x00\x00\x00\x00;@'
p2172
tp2173
Rp2174
sa(dp2175
g7
I3
sg8
I324
sg9
I13
sg10
I4895
sg11
I3789
sg12
g13
(g17
S'\x00\x00\x00\x00\x00\x00$@'
p2176
tp2177
Rp2178
sa(dp2179
g7
I3
sg8
I321
sg9
I14
sg10
I4969
sg11
I3790
sg12
g13
(g17
S'\x00\x00\x00\x00\x00\x00"@'
p2180
tp2181
Rp2182
sa(dp2183
g7
I3
sg8
I308
sg9
I15
sg10
I3047
sg11
I3791
sg12
g13
(g17
S'\x00\x00\x00\x00\x00@V@'
p2184
tp2185
Rp2186
sa(dp2187
g7
I4
sg8
I343
sg9
I0
sg10
I3858
sg11
I3792
sg12
g13
(g17
S'\x00\x00\x00\x00\x00\x80@@'
p2188
tp2189
Rp2190
sa(dp2191
g7
I4
sg8
I306
sg9
I1
sg10
I4576
sg11
I3793
sg12
g13
(g17
S'\x00\x00\x00\x00\x00\x00(@'
p2192
tp2193
Rp2194
sa(dp2195
g7
I4
sg8
I318
sg9
I2
sg10
I3412
sg11
I3794
sg12
g13
(g17
S'\x00\x00\x00\x00\x00\x00A@'
p2196
tp2197
Rp2198
sa(dp2199
g7
I4
sg8
I316
sg9
I3
sg10
I4460
sg11
I3795
sg12
g13
(g17
S'\x00\x00\x00\x00\x00\x002@'
p2200
tp2201
Rp2202
sa(dp2203
g7
I4
sg8
I354
sg9
I5
sg10
I4940
sg11
I3796
sg12
g13
(g17
S'\x00\x00\x00\x00\x00\x00$@'
p2204
tp2205
Rp2206
sa(dp2207
g7
I4
sg8
I323
sg9
I8
sg10
I4888
sg11
I3797
sg12
g13
(g17
S'\x00\x00\x00\x00\x00\x00 @'
p2208
tp2209
Rp2210
sa(dp2211
g7
I4
sg8
I305
sg9
I11
sg10
I4834
sg11
I3798
sg12
g13
(g17
S'\x00\x00\x00\x00\x00\x00.@'
p2212
tp2213
Rp2214
sa(dp2215
g7
I4
sg8
I340
sg9
I12
sg10
I4675
sg11
I3799
sg12
g13
(g17
S'\x00\x00\x00\x00\x00\x00"@'
p2216
tp2217
Rp2218
sa(dp2219
g7
I4
sg8
I357
sg9
I13
sg10
I2970
sg11
I3800
sg12
g13
(g17
S'\x00\x00\x00\x00\x00\x80T@'
p2220
tp2221
Rp2222
sa(dp2223
g7
I4
sg8
I328
sg9
I14
sg10
I4275
sg11
I3801
sg12
g13
(g17
S'\x00\x00\x00\x00\x00\x000@'
p2224
tp2225
Rp2226
sa(dp2227
g7
I4
sg8
I343
sg9
I15
sg10
I5019
sg11
I3802
sg12
g13
(g17
S'\x00\x00\x00\x00\x00\x00\x1c@'
p2228
tp2229
Rp2230
sa(dp2231
g7
I5
sg8
I348
sg9
I1
sg10
I4069
sg11
I3803
sg12
g13
(g17
S'\x00\x00\x00\x00\x00\xc0U@'
p2232
tp2233
Rp2234
sa(dp2235
g7
I5
sg8
I337
sg9
I2
sg10
I4862
sg11
I3804
sg12
g13
(g17
S'\x00\x00\x00\x00\x00\x00\x14@'
p2236
tp2237
Rp2238
sa(dp2239
g7
I5
sg8
I338
sg9
I4
sg10
I4777
sg11
I3805
sg12
g13
(g17
S'\x00\x00\x00\x00\x00\x00"@'
p2240
tp2241
Rp2242
sa(dp2243
g7
I5
sg8
I310
sg9
I7
sg10
I4313
sg11
I3806
sg12
g13
(g17
S'\x00\x00\x00\x00\x00\x005@'
p2244
tp2245
Rp2246
sa(dp2247
g7
I5
sg8
I375
sg9
I9
sg10
I5309
sg11
I3807
sg12
g13
(g17
S'\x00\x00\x00\x00\x00@Z@'
p2248
tp2249
Rp2250
sa(dp2251
g7
I5
sg8
I344
sg9
I12
sg10
I3316
sg11
I3808
sg12
g13
(g17
S'\x00\x00\x00\x00\x00\xe0c@'
p2252
tp2253
Rp2254
sa(dp2255
g7
I5
sg8
I303
sg9
I13
sg10
I4959
sg11
I3809
sg12
g13
(g17
S'\x00\x00\x00\x00\x00\x00\x00@'
p2256
tp2257
Rp2258
sa(dp2259
g7
I5
sg8
I316
sg9
I14
sg10
I4448
sg11
I3810
sg12
g13
(g17
S'\x00\x00\x00\x00\x00\x00.@'
p2260
tp2261
Rp2262
sa(dp2263
g7
I6
sg8
I308
sg9
I0
sg10
I4803
sg11
I3811
sg12
g13
(g17
S'\x00\x00\x00\x00\x00\x00 @'
p2264
tp2265
Rp2266
sa(dp2267
g7
I6
sg8
I366
sg9
I2
sg10
I4123
sg11
I3812
sg12
g13
(g17
S'\x00\x00\x00\x00\x00@Z@'
p2268
tp2269
Rp2270
sa(dp2271
g7
I6
sg8
I366
sg9
I3
sg10
I3492
sg11
I3813
sg12
g13
(g17
S'\x00\x00\x00\x00\x00\x80P@'
p2272
tp2273
Rp2274
sa(dp2275
g7
I6
sg8
I358
sg9
I4
sg10
I4928
sg11
I3814
sg12
g13
(g17
S'\x00\x00\x00\x00\x00\x00 @'
p2276
tp2277
Rp2278
sa(dp2279
g7
I6
sg8
I303
sg9
I6
sg10
I5053
sg11
I3815
sg12
g13
(g17
S'\x00\x00\x00\x00\x00\x002@'
p2280
tp2281
Rp2282
sa(dp2283
g7
I6
sg8
I329
sg9
I8
sg10
I4322
sg11
I3816
sg12
g13
(g17
S'\x00\x00\x00\x00\x00\x00<@'
p2284
tp2285
Rp2286
sa(dp2287
g7
I6
sg8
I388
sg9
I9
sg10
I2819
sg11
I3817
sg12
g13
(g17
S'\x00\x00\x00\x00\x00\x00J@'
p2288
tp2289
Rp2290
sa(dp2291
g7
I6
sg8
I319
sg9
I12
sg10
I4575
sg11
I3818
sg12
g13
(g17
S'\x00\x00\x00\x00\x00\x00.@'
p2292
tp2293
Rp2294
sa(dp2295
g7
I6
sg8
I328
sg9
I13
sg10
I4703
sg11
I3819
sg12
g13
(g17
S'\x00\x00\x00\x00\x00\x00*@'
p2296
tp2297
Rp2298
sa(dp2299
g7
I6
sg8
I306
sg9
I15
sg10
I4478
sg11
I3820
sg12
g13
(g17
S'\x00\x00\x00\x00\x00\x004@'
p2300
tp2301
Rp2302
sa(dp2303
g7
I7
sg8
I351
sg9
I0
sg10
I4292
sg11
I3821
sg12
g13
(g17
S'\x00\x00\x00\x00\x00\x00:@'
p2304
tp2305
Rp2306
sa(dp2307
g7
I7
sg8
I388
sg9
I1
sg10
I5217
sg11
I3822
sg12
g13
(g17
S'\x00\x00\x00\x00\x00\x00\x10@'
p2308
tp2309
Rp2310
sa(dp2311
g7
I7
sg8
I355
sg9
I5
sg10
I5194
sg11
I3823
sg12
g13
(g17
S'\x00\x00\x00\x00\x00\x00\x14@'
p2312
tp2313
Rp2314
sa(dp2315
g7
I7
sg8
I380
sg9
I7
sg10
I4646
sg11
I3824
sg12
g13
(g17
S'\x00\x00\x00\x00\x00\x00Q@'
p2316
tp2317
Rp2318
sa(dp2319
g7
I7
sg8
I339
sg9
I8
sg10
I4943
sg11
I3825
sg12
g13
(g17
S'\x00\x00\x00\x00\x00\x00\x1c@'
p2320
tp2321
Rp2322
sa(dp2323
g7
I7
sg8
I351
sg9
I9
sg10
I4756
sg11
I3826
sg12
g13
(g17
S'\x00\x00\x00\x00\x00\x00\x1c@'
p2324
tp2325
Rp2326
sa(dp2327
g7
I7
sg8
I330
sg9
I10
sg10
I5077
sg11
I3827
sg12
g13
(g17
S'\x00\x00\x00\x00\x00\x00\x00@'
p2328
tp2329
Rp2330
sa(dp2331
g7
I7
sg8
I351
sg9
I11
sg10
I3012
sg11
I3828
sg12
g13
(g17
S'\x00\x00\x00\x00\x00\xc0V@'
p2332
tp2333
Rp2334
sa(dp2335
g7
I7
sg8
I340
sg9
I13
sg10
I5119
sg11
I3829
sg12
g13
(g17
S'\x00\x00\x00\x00\x00\x00.@'
p2336
tp2337
Rp2338
sa(dp2339
g7
I7
sg8
I309
sg9
I14
sg10
I3625
sg11
I3830
sg12
g13
(g17
S'\x00\x00\x00\x00\x00@U@'
p2340
tp2341
Rp2342
sa(dp2343
g7
I7
sg8
I304
sg9
I15
sg10
I3985
sg11
I3831
sg12
g13
(g17
S'\x00\x00\x00\x00\x00\x80K@'
p2344
tp2345
Rp2346
sa(dp2347
g7
I8
sg8
I399
sg9
I1
sg10
I2872
sg11
I3832
sg12
g13
(g17
S'\x00\x00\x00\x00\x00\x00Q@'
p2348
tp2349
Rp2350
sa(dp2351
g7
I8
sg8
I383
sg9
I3
sg10
I4895
sg11
I3833
sg12
g13
(g17
S'\x00\x00\x00\x00\x00\x00\x18@'
p2352
tp2353
Rp2354
sa(dp2355
g7
I8
sg8
I333
sg9
I4
sg10
I4028
sg11
I3834
sg12
g13
(g17
S'\x00\x00\x00\x00\x00@R@'
p2356
tp2357
Rp2358
sa(dp2359
g7
I8
sg8
I330
sg9
I5
sg10
I4426
sg11
I3835
sg12
g13
(g17
S'\x00\x00\x00\x00\x00\x00*@'
p2360
tp2361
Rp2362
sa(dp2363
g7
I8
sg8
I359
sg9
I6
sg10
I5317
sg11
I3836
sg12
g13
(g17
S'\x00\x00\x00\x00\x00\x00 @'
p2364
tp2365
Rp2366
sa(dp2367
g7
I8
sg8
I339
sg9
I7
sg10
I4796
sg11
I3837
sg12
g13
(g17
S'\x00\x00\x00\x00\x00\x00,@'
p2368
tp2369
Rp2370
sa(dp2371
g7
I8
sg8
I364
sg9
I8
sg10
I4998
sg11
I3838
sg12
g13
(g17
S'\x00\x00\x00\x00\x00\x00\x1c@'
p2372
tp2373
Rp2374
sa(dp2375
g7
I8
sg8
I397
sg9
I11
sg10
I4822
sg11
I3839
sg12
g13
(g17
S'\x00\x00\x00\x00\x00\x00$@'
p2376
tp2377
Rp2378
sa(dp2379
g7
I8
sg8
I389
sg9
I13
sg10
I5221
sg11
I3840
sg12
g13
(g17
S'\x00\x00\x00\x00\x00\x00"@'
p2380
tp2381
Rp2382
sa(dp2383
g7
I8
sg8
I377
sg9
I14
sg10
I4650
sg11
I3841
sg12
g13
(g17
S'\x00\x00\x00\x00\x00\x00(@'
p2384
tp2385
Rp2386
sa(dp2387
g7
I8
sg8
I353
sg9
I15
sg10
I4539
sg11
I3842
sg12
g13
(g17
S'\x00\x00\x00\x00\x00@d@'
p2388
tp2389
Rp2390
sa(dp2391
g7
I9
sg8
I303
sg9
I3
sg10
I3914
sg11
I3843
sg12
g13
(g17
S'\x00\x00\x00\x00\x00\x80B@'
p2392
tp2393
Rp2394
sa(dp2395
g7
I9
sg8
I390
sg9
I4
sg10
I4832
sg11
I3844
sg12
g13
(g17
S'\x00\x00\x00\x00\x00\xc0P@'
p2396
tp2397
Rp2398
sa(dp2399
g7
I9
sg8
I322
sg9
I5
sg10
I5028
sg11
I3845
sg12
g13
(g17
S'\x00\x00\x00\x00\x00\x00\x10@'
p2400
tp2401
Rp2402
sa(dp2403
g7
I9
sg8
I396
sg9
I7
sg10
I4874
sg11
I3846
sg12
g13
(g17
S'\x00\x00\x00\x00\x00\x00\x10@'
p2404
tp2405
Rp2406
sa(dp2407
g7
I9
sg8
I369
sg9
I10
sg10
I3086
sg11
I3847
sg12
g13
(g17
S'\x00\x00\x00\x00\x00\x80\\@'
p2408
tp2409
Rp2410
sa(dp2411
g7
I9
sg8
I317
sg9
I11
sg10
I3637
sg11
I3848
sg12
g13
(g17
S'\x00\x00\x00\x00\x00\x80V@'
p2412
tp2413
Rp2414
sa(dp2415
g7
I9
sg8
I328
sg9
I12
sg10
I4787
sg11
I3849
sg12
g13
(g17
S'\x00\x00\x00\x00\x00\x00"@'
p2416
tp2417
Rp2418
sa(dp2419
g7
I9
sg8
I335
sg9
I13
sg10
I4284
sg11
I3850
sg12
g13
(g17
S'\x00\x00\x00\x00\x00\x004@'
p2420
tp2421
Rp2422
sa(dp2423
g7
I9
sg8
I364
sg9
I14
sg10
I5170
sg11
I3851
sg12
g13
(g17
S'\x00\x00\x00\x00\x00\x00\x14@'
p2424
tp2425
Rp2426
sa(dp2427
g7
I9
sg8
I337
sg9
I15
sg10
I4702
sg11
I3852
sg12
g13
(g17
S'\x00\x00\x00\x00\x00\x00.@'
p2428
tp2429
Rp2430
sa(dp2431
g7
I10
sg8
I329
sg9
I0
sg10
I4862
sg11
I3853
sg12
g13
(g17
S'\x00\x00\x00\x00\x00\x80@@'
p2432
tp2433
Rp2434
sa(dp2435
g7
I10
sg8
I334
sg9
I1
sg10
I4689
sg11
I3854
sg12
g13
(g17
S'\x00\x00\x00\x00\x00\x00&@'
p2436
tp2437
Rp2438
sa(dp2439
g7
I10
sg8
I334
sg9
I2
sg10
I4277
sg11
I3855
sg12
g13
(g17
S'\x00\x00\x00\x00\x00\x002@'
p2440
tp2441
Rp2442
sa(dp2443
g7
I10
sg8
I358
sg9
I4
sg10
I3404
sg11
I3856
sg12
g13
(g17
S'\x00\x00\x00\x00\x00\x00E@'
p2444
tp2445
Rp2446
sa(dp2447
g7
I10
sg8
I387
sg9
I5
sg10
I4720
sg11
I3857
sg12
g13
(g17
S'\x00\x00\x00\x00\x00\x00\x1c@'
p2448
tp2449
Rp2450
sa(dp2451
g7
I10
sg8
I356
sg9
I6
sg10
I5128
sg11
I3858
sg12
g13
(g17
S'\x00\x00\x00\x00\x00\x00.@'
p2452
tp2453
Rp2454
sa(dp2455
g7
I10
sg8
I394
sg9
I10
sg10
I4394
sg11
I3859
sg12
g13
(g17
S'\x00\x00\x00\x00\x00\x005@'
p2456
tp2457
Rp2458
sa(dp2459
g7
I10
sg8
I385
sg9
I11
sg10
I4873
sg11
I3860
sg12
g13
(g17
S'\x00\x00\x00\x00\x00\x00\xf0?'
p2460
tp2461
Rp2462
sa(dp2463
g7
I10
sg8
I339
sg9
I12
sg10
I3818
sg11
I3861
sg12
g13
(g17
S'\x00\x00\x00\x00\x00\x006@'
p2464
tp2465
Rp2466
sa(dp2467
g7
I10
sg8
I386
sg9
I14
sg10
I3033
sg11
I3862
sg12
g13
(g17
S'\x00\x00\x00\x00\x00@Z@'
p2468
tp2469
Rp2470
sa(dp2471
g7
I11
sg8
I360
sg9
I2
sg10
I4675
sg11
I3863
sg12
g13
(g17
S'\x00\x00\x00\x00\x00\x00,@'
p2472
tp2473
Rp2474
sa(dp2475
g7
I11
sg8
I389
sg9
I6
sg10
I2830
sg11
I3864
sg12
g13
(g17
S'\x00\x00\x00\x00\x00\x80K@'
p2476
tp2477
Rp2478
sa(dp2479
g7
I11
sg8
I373
sg9
I7
sg10
I5071
sg11
I3865
sg12
g13
(g17
S'\x00\x00\x00\x00\x00\x00.@'
p2480
tp2481
Rp2482
sa(dp2483
g7
I11
sg8
I313
sg9
I8
sg10
I4447
sg11
I3866
sg12
g13
(g17
S'\x00\x00\x00\x00\x00\x00,@'
p2484
tp2485
Rp2486
sa(dp2487
g7
I11
sg8
I330
sg9
I9
sg10
I3592
sg11
I3867
sg12
g13
(g17
S'\x00\x00\x00\x00\x00\x80T@'
p2488
tp2489
Rp2490
sa(dp2491
g7
I11
sg8
I309
sg9
I10
sg10
I4613
sg11
I3868
sg12
g13
(g17
S'\x00\x00\x00\x00\x00\x80L@'
p2492
tp2493
Rp2494
sa(dp2495
g7
I11
sg8
I348
sg9
I11
sg10
I4065
sg11
I3869
sg12
g13
(g17
S'\x00\x00\x00\x00\x00\x80U@'
p2496
tp2497
Rp2498
sa(dp2499
g7
I11
sg8
I354
sg9
I12
sg10
I4912
sg11
I3870
sg12
g13
(g17
S'\x00\x00\x00\x00\x00\x00\x08@'
p2500
tp2501
Rp2502
sa(dp2503
g7
I11
sg8
I357
sg9
I13
sg10
I4774
sg11
I3871
sg12
g13
(g17
S'\x00\x00\x00\x00\x00\x00*@'
p2504
tp2505
Rp2506
sa(dp2507
g7
I12
sg8
I394
sg9
I0
sg10
I4629
sg11
I3872
sg12
g13
(g17
S'\x00\x00\x00\x00\x00\x00&@'
p2508
tp2509
Rp2510
sa(dp2511
g7
I12
sg8
I380
sg9
I2
sg10
I4497
sg11
I3873
sg12
g13
(g17
S'\x00\x00\x00\x00\x00\x80B@'
p2512
tp2513
Rp2514
sa(dp2515
g7
I12
sg8
I365
sg9
I4
sg10
I4242
sg11
I3874
sg12
g13
(g17
S'\x00\x00\x00\x00\x00\x001@'
p2516
tp2517
Rp2518
sa(dp2519
g7
I12
sg8
I329
sg9
I5
sg10
I3537
sg11
I3875
sg12
g13
(g17
S'\x00\x00\x00\x00\x00\x00Q@'
p2520
tp2521
Rp2522
sa(dp2523
g7
I12
sg8
I314
sg9
I6
sg10
I4952
sg11
I3876
sg12
g13
(g17
S'\x00\x00\x00\x00\x00\x00\x08@'
p2524
tp2525
Rp2526
sa(dp2527
g7
I12
sg8
I303
sg9
I8
sg10
I3008
sg11
I3877
sg12
g13
(g17
S'\x00\x00\x00\x00\x00\x80S@'
p2528
tp2529
Rp2530
sa(dp2531
g7
I12
sg8
I346
sg9
I9
sg10
I4853
sg11
I3878
sg12
g13
(g17
S'\x00\x00\x00\x00\x00\x00\x14@'
p2532
tp2533
Rp2534
sa(dp2535
g7
I12
sg8
I309
sg9
I13
sg10
I4016
sg11
I3879
sg12
g13
(g17
S'\x00\x00\x00\x00\x00\x00P@'
p2536
tp2537
Rp2538
sa(dp2539
g7
I12
sg8
I301
sg9
I14
sg10
I4806
sg11
I3880
sg12
g13
(g17
S'\x00\x00\x00\x00\x00\x00\x1c@'
p2540
tp2541
Rp2542
sa(dp2543
g7
I13
sg8
I357
sg9
I1
sg10
I3381
sg11
I3881
sg12
g13
(g17
S'\x00\x00\x00\x00\x00\x00B@'
p2544
tp2545
Rp2546
sa(dp2547
g7
I13
sg8
I340
sg9
I2
sg10
I4771
sg11
I3882
sg12
g13
(g17
S'\x00\x00\x00\x00\x00\x00 @'
p2548
tp2549
Rp2550
sa(dp2551
g7
I13
sg8
I352
sg9
I3
sg10
I4687
sg11
I3883
sg12
g13
(g17
S'\x00\x00\x00\x00\x00\x00.@'
p2552
tp2553
Rp2554
sa(dp2555
g7
I13
sg8
I349
sg9
I4
sg10
I3094
sg11
I3884
sg12
g13
(g17
S'\x00\x00\x00\x00\x00\xc0[@'
p2556
tp2557
Rp2558
sa(dp2559
g7
I13
sg8
I390
sg9
I6
sg10
I4035
sg11
I3885
sg12
g13
(g17
S'\x00\x00\x00\x00\x00@V@'
p2560
tp2561
Rp2562
sa(dp2563
g7
I13
sg8
I340
sg9
I7
sg10
I5313
sg11
I3886
sg12
g13
(g17
S'\x00\x00\x00\x00\x00\x00&@'
p2564
tp2565
Rp2566
sa(dp2567
g7
I13
sg8
I366
sg9
I8
sg10
I4528
sg11
I3887
sg12
g13
(g17
S'\x00\x00\x00\x00\x00\x00.@'
p2568
tp2569
Rp2570
sa(dp2571
g7
I13
sg8
I320
sg9
I9
sg10
I4942
sg11
I3888
sg12
g13
(g17
S'\x00\x00\x00\x00\x00\x80B@'
p2572
tp2573
Rp2574
sa(dp2575
g7
I13
sg8
I395
sg9
I11
sg10
I5214
sg11
I3889
sg12
g13
(g17
S'\x00\x00\x00\x00\x00\x00\x14@'
p2576
tp2577
Rp2578
sa(dp2579
g7
I13
sg8
I324
sg9
I13
sg10
I4432
sg11
I3890
sg12
g13
(g17
S'\x00\x00\x00\x00\x00\x00*@'
p2580
tp2581
Rp2582
sa(dp2583
g7
I13
sg8
I329
sg9
I14
sg10
I5037
sg11
I3891
sg12
g13
(g17
S'\x00\x00\x00\x00\x00\x00 @'
p2584
tp2585
Rp2586
sa(dp2587
g7
I13
sg8
I353
sg9
I15
sg10
I5048
sg11
I3892
sg12
g13
(g17
S'\x00\x00\x00\x00\x00\x00*@'
p2588
tp2589
Rp2590
sa(dp2591
g7
I14
sg8
I392
sg9
I1
sg10
I4239
sg11
I3893
sg12
g13
(g17
S'\x00\x00\x00\x00\x00\x007@'
p2592
tp2593
Rp2594
sa(dp2595
g7
I14
sg8
I338
sg9
I2
sg10
I5260
sg11
I3894
sg12
g13
(g17
S'\x00\x00\x00\x00\x00\x000@'
p2596
tp2597
Rp2598
sa(dp2599
g7
I14
sg8
I385
sg9
I3
sg10
I2886
sg11
I3895
sg12
g13
(g17
S'\x00\x00\x00\x00\x00\x00Q@'
p2600
tp2601
Rp2602
sa(dp2603
g7
I14
sg8
I310
sg9
I6
sg10
I3700
sg11
I3896
sg12
g13
(g17
S'\x00\x00\x00\x00\x00\x00Z@'
p2604
tp2605
Rp2606
sa(dp2607
g7
I14
sg8
I302
sg9
I7
sg10
I3979
sg11
I3897
sg12
g13
(g17
S'\x00\x00\x00\x00\x00\x80J@'
p2608
tp2609
Rp2610
sa(dp2611
g7
I14
sg8
I383
sg9
I10
sg10
I4720
sg11
I3898
sg12
g13
(g17
S'\x00\x00\x00\x00\x00\x00\x18@'
p2612
tp2613
Rp2614
sa(dp2615
g7
I14
sg8
I373
sg9
I11
sg10
I4990
sg11
I3899
sg12
g13
(g17
S'\x00\x00\x00\x00\x00\x00:@'
p2616
tp2617
Rp2618
sa(dp2619
g7
I14
sg8
I385
sg9
I12
sg10
I4387
sg11
I3900
sg12
g13
(g17
S'\x00\x00\x00\x00\x00\x001@'
p2620
tp2621
Rp2622
sa(dp2623
g7
I14
sg8
I336
sg9
I14
sg10
I4875
sg11
I3901
sg12
g13
(g17
S'\x00\x00\x00\x00\x00\x00 @'
p2624
tp2625
Rp2626
sa(dp2627
g7
I15
sg8
I341
sg9
I0
sg10
I4932
sg11
I3902
sg12
g13
(g17
S'\x00\x00\x00\x00\x00\x00?@'
p2628
tp2629
Rp2630
sa(dp2631
g7
I15
sg8
I319
sg9
I1
sg10
I4788
sg11
I3903
sg12
g13
(g17
S'\x00\x00\x00\x00\x00\x00\x1c@'
p2632
tp2633
Rp2634
sa(dp2635
g7
I15
sg8
I304
sg9
I2
sg10
I2987
sg11
I3904
sg12
g13
(g17
S'\x00\x00\x00\x00\x00@R@'
p2636
tp2637
Rp2638
sa(dp2639
g7
I15
sg8
I386
sg9
I3
sg10
I4960
sg11
I3905
sg12
g13
(g17
S'\x00\x00\x00\x00\x00\x00\x08@'
p2640
tp2641
Rp2642
sa(dp2643
g7
I15
sg8
I335
sg9
I5
sg10
I5150
sg11
I3906
sg12
g13
(g17
S'\x00\x00\x00\x00\x00\x00T@'
p2644
tp2645
Rp2646
sa(dp2647
g7
I15
sg8
I349
sg9
I7
sg10
I5370
sg11
I3907
sg12
g13
(g17
S'\x00\x00\x00\x00\x00\x00\x14@'
p2648
tp2649
Rp2650
sa(dp2651
g7
I15
sg8
I360
sg9
I8
sg10
I5127
sg11
I3908
sg12
g13
(g17
S'\x00\x00\x00\x00\x00\x00\x00@'
p2652
tp2653
Rp2654
sa(dp2655
g7
I15
sg8
I328
sg9
I9
sg10
I3837
sg11
I3909
sg12
g13
(g17
S'\x00\x00\x00\x00\x00\x008@'
p2656
tp2657
Rp2658
sa(dp2659
g7
I15
sg8
I314
sg9
I10
sg10
I3620
sg11
I3910
sg12
g13
(g17
S'\x00\x00\x00\x00\x00@U@'
p2660
tp2661
Rp2662
sa(dp2663
g7
I15
sg8
I395
sg9
I13
sg10
I5282
sg11
I3911
sg12
g13
(g17
S'\x00\x00\x00\x00\x00\x00*@'
p2664
tp2665
Rp2666
sa(dp2667
g7
I15
sg8
I344
sg9
I14
sg10
I4578
sg11
I3912
sg12
g13
(g17
S'\x00\x00\x00\x00\x00\x006@'
p2668
tp2669
Rp2670
sa(dp2671
g7
I15
sg8
I346
sg9
I15
sg10
I5378
sg11
I3913
sg12
g13
(g17
S'\x00\x00\x00\x00\x00\x00(@'
p2672
tp2673
Rp2674
sa(dp2675
g7
I0
sg8
I446
sg9
I0
sg10
I3333
sg11
I3914
sg12
g13
(g17
S'\x00\x00\x00\x00\x00\x80B@'
p2676
tp2677
Rp2678
sa(dp2679
g7
I0
sg8
I416
sg9
I1
sg10
I4353
sg11
I3915
sg12
g13
(g17
S'\x00\x00\x00\x00\x00\x00*@'
p2680
tp2681
Rp2682
sa(dp2683
g7
I0
sg8
I484
sg9
I3
sg10
I5320
sg11
I3916
sg12
g13
(g17
S'\x00\x00\x00\x00\x00@[@'
p2684
tp2685
Rp2686
sa(dp2687
g7
I0
sg8
I429
sg9
I4
sg10
I4930
sg11
I3917
sg12
g13
(g17
S'\x00\x00\x00\x00\x00\x00\x14@'
p2688
tp2689
Rp2690
sa(dp2691
g7
I0
sg8
I473
sg9
I5
sg10
I3951
sg11
I3918
sg12
g13
(g17
S'\x00\x00\x00\x00\x00\xc0Q@'
p2692
tp2693
Rp2694
sa(dp2695
g7
I0
sg8
I461
sg9
I7
sg10
I2983
sg11
I3919
sg12
g13
(g17
S'\x00\x00\x00\x00\x00@V@'
p2696
tp2697
Rp2698
sa(dp2699
g7
I0
sg8
I481
sg9
I8
sg10
I4548
sg11
I3920
sg12
g13
(g17
S'\x00\x00\x00\x00\x00\x00$@'
p2700
tp2701
Rp2702
sa(dp2703
g7
I0
sg8
I440
sg9
I10
sg10
I4844
sg11
I3921
sg12
g13
(g17
S'\x00\x00\x00\x00\x00\x00\x18@'
p2704
tp2705
Rp2706
sa(dp2707
g7
I0
sg8
I470
sg9
I13
sg10
I4444
sg11
I3922
sg12
g13
(g17
S'\x00\x00\x00\x00\x00\x000@'
p2708
tp2709
Rp2710
sa(dp2711
g7
I1
sg8
I496
sg9
I0
sg10
I2743
sg11
I3923
sg12
g13
(g17
S'\x00\x00\x00\x00\x00\x00H@'
p2712
tp2713
Rp2714
sa(dp2715
g7
I1
sg8
I456
sg9
I1
sg10
I4803
sg11
I3924
sg12
g13
(g17
S'\x00\x00\x00\x00\x00\x00\xf0?'
p2716
tp2717
Rp2718
sa(dp2719
g7
I1
sg8
I424
sg9
I2
sg10
I5130
sg11
I3925
sg12
g13
(g17
S'\x00\x00\x00\x00\x00\x00\x14@'
p2720
tp2721
Rp2722
sa(dp2723
g7
I1
sg8
I414
sg9
I3
sg10
I5460
sg11
I3926
sg12
g13
(g17
S'\x00\x00\x00\x00\x00\x00\x08@'
p2724
tp2725
Rp2726
sa(dp2727
g7
I1
sg8
I476
sg9
I4
sg10
I4933
sg11
I3927
sg12
g13
(g17
S'\x00\x00\x00\x00\x00\x001@'
p2728
tp2729
Rp2730
sa(dp2731
g7
I1
sg8
I419
sg9
I5
sg10
I4495
sg11
I3928
sg12
g13
(g17
S'\x00\x00\x00\x00\x00\x000@'
p2732
tp2733
Rp2734
sa(dp2735
g7
I1
sg8
I425
sg9
I7
sg10
I3529
sg11
I3929
sg12
g13
(g17
S'\x00\x00\x00\x00\x00\x00R@'
p2736
tp2737
Rp2738
sa(dp2739
g7
I1
sg8
I404
sg9
I10
sg10
I4945
sg11
I3930
sg12
g13
(g17
S'\x00\x00\x00\x00\x00\x00\x08@'
p2740
tp2741
Rp2742
sa(dp2743
g7
I1
sg8
I404
sg9
I11
sg10
I5055
sg11
I3931
sg12
g13
(g17
S'\x00\x00\x00\x00\x00\x80J@'
p2744
tp2745
Rp2746
sa(dp2747
g7
I1
sg8
I489
sg9
I12
sg10
I4730
sg11
I3932
sg12
g13
(g17
S'\x00\x00\x00\x00\x00\x00 @'
p2748
tp2749
Rp2750
sa(dp2751
g7
I1
sg8
I410
sg9
I14
sg10
I3819
sg11
I3933
sg12
g13
(g17
S'\x00\x00\x00\x00\x00\x00@@'
p2752
tp2753
Rp2754
sa(dp2755
g7
I1
sg8
I454
sg9
I15
sg10
I4665
sg11
I3934
sg12
g13
(g17
S'\x00\x00\x00\x00\x00\x00 @'
p2756
tp2757
Rp2758
sa(dp2759
g7
I2
sg8
I460
sg9
I0
sg10
I5524
sg11
I3935
sg12
g13
(g17
S'\x00\x00\x00\x00\x00\x009@'
p2760
tp2761
Rp2762
sa(dp2763
g7
I2
sg8
I407
sg9
I1
sg10
I4797
sg11
I3936
sg12
g13
(g17
S'\x00\x00\x00\x00\x00\x00\x14@'
p2764
tp2765
Rp2766
sa(dp2767
g7
I2
sg8
I468
sg9
I2
sg10
I5416
sg11
I3937
sg12
g13
(g17
S'\x00\x00\x00\x00\x00\x00*@'
p2768
tp2769
Rp2770
sa(dp2771
g7
I2
sg8
I455
sg9
I3
sg10
I4489
sg11
I3938
sg12
g13
(g17
S'\x00\x00\x00\x00\x00\x006@'
p2772
tp2773
Rp2774
sa(dp2775
g7
I2
sg8
I429
sg9
I5
sg10
I3040
sg11
I3939
sg12
g13
(g17
S'\x00\x00\x00\x00\x00\x80W@'
p2776
tp2777
Rp2778
sa(dp2779
g7
I2
sg8
I438
sg9
I6
sg10
I5396
sg11
I3940
sg12
g13
(g17
S'\x00\x00\x00\x00\x00\xc0W@'
p2780
tp2781
Rp2782
sa(dp2783
g7
I2
sg8
I422
sg9
I8
sg10
I4707
sg11
I3941
sg12
g13
(g17
S'\x00\x00\x00\x00\x00\x00$@'
p2784
tp2785
Rp2786
sa(dp2787
g7
I2
sg8
I416
sg9
I9
sg10
I5598
sg11
I3942
sg12
g13
(g17
S'\x00\x00\x00\x00\x00\x00\xf0?'
p2788
tp2789
Rp2790
sa(dp2791
g7
I2
sg8
I448
sg9
I10
sg10
I3886
sg11
I3943
sg12
g13
(g17
S'\x00\x00\x00\x00\x00\x80J@'
p2792
tp2793
Rp2794
sa(dp2795
g7
I2
sg8
I498
sg9
I11
sg10
I5051
sg11
I3944
sg12
g13
(g17
S'\x00\x00\x00\x00\x00\x00\x10@'
p2796
tp2797
Rp2798
sa(dp2799
g7
I2
sg8
I423
sg9
I13
sg10
I3541
sg11
I3945
sg12
g13
(g17
S'\x00\x00\x00\x00\x00\x80R@'
p2800
tp2801
Rp2802
sa(dp2803
g7
I2
sg8
I448
sg9
I14
sg10
I5016
sg11
I3946
sg12
g13
(g17
S'\x00\x00\x00\x00\x00\x00\x14@'
p2804
tp2805
Rp2806
sa(dp2807
g7
I2
sg8
I480
sg9
I15
sg10
I4829
sg11
I3947
sg12
g13
(g17
S'\x00\x00\x00\x00\x00\x00&@'
p2808
tp2809
Rp2810
sa(dp2811
g7
I3
sg8
I417
sg9
I2
sg10
I4952
sg11
I3948
sg12
g13
(g17
S'\x00\x00\x00\x00\x00\x00\x1c@'
p2812
tp2813
Rp2814
sa(dp2815
g7
I3
sg8
I413
sg9
I6
sg10
I4726
sg11
I3949
sg12
g13
(g17
S'\x00\x00\x00\x00\x00\x00(@'
p2816
tp2817
Rp2818
sa(dp2819
g7
I3
sg8
I486
sg9
I8
sg10
I3708
sg11
I3950
sg12
g13
(g17
S'\x00\x00\x00\x00\x00\xc0\\@'
p2820
tp2821
Rp2822
sa(dp2823
g7
I3
sg8
I460
sg9
I9
sg10
I4339
sg11
I3951
sg12
g13
(g17
S'\x00\x00\x00\x00\x00\x003@'
p2824
tp2825
Rp2826
sa(dp2827
g7
I3
sg8
I483
sg9
I10
sg10
I4551
sg11
I3952
sg12
g13
(g17
S'\x00\x00\x00\x00\x00\x00&@'
p2828
tp2829
Rp2830
sa(dp2831
g7
I3
sg8
I472
sg9
I11
sg10
I4482
sg11
I3953
sg12
g13
(g17
S'\x00\x00\x00\x00\x00\x008@'
p2832
tp2833
Rp2834
sa(dp2835
g7
I3
sg8
I470
sg9
I12
sg10
I4204
sg11
I3954
sg12
g13
(g17
S'\x00\x00\x00\x00\x00\x00;@'
p2836
tp2837
Rp2838
sa(dp2839
g7
I3
sg8
I424
sg9
I13
sg10
I4805
sg11
I3955
sg12
g13
(g17
S'\x00\x00\x00\x00\x00\x00$@'
p2840
tp2841
Rp2842
sa(dp2843
g7
I3
sg8
I421
sg9
I14
sg10
I4878
sg11
I3956
sg12
g13
(g17
S'\x00\x00\x00\x00\x00\x00"@'
p2844
tp2845
Rp2846
sa(dp2847
g7
I3
sg8
I408
sg9
I15
sg10
I3036
sg11
I3957
sg12
g13
(g17
S'\x00\x00\x00\x00\x00@V@'
p2848
tp2849
Rp2850
sa(dp2851
g7
I4
sg8
I443
sg9
I0
sg10
I3791
sg11
I3958
sg12
g13
(g17
S'\x00\x00\x00\x00\x00\x80@@'
p2852
tp2853
Rp2854
sa(dp2855
g7
I4
sg8
I406
sg9
I1
sg10
I4488
sg11
I3959
sg12
g13
(g17
S'\x00\x00\x00\x00\x00\x00(@'
p2856
tp2857
Rp2858
sa(dp2859
g7
I4
sg8
I418
sg9
I2
sg10
I3346
sg11
I3960
sg12
g13
(g17
S'\x00\x00\x00\x00\x00\x00A@'
p2860
tp2861
Rp2862
sa(dp2863
g7
I4
sg8
I416
sg9
I3
sg10
I4378
sg11
I3961
sg12
g13
(g17
S'\x00\x00\x00\x00\x00\x002@'
p2864
tp2865
Rp2866
sa(dp2867
g7
I4
sg8
I454
sg9
I5
sg10
I4850
sg11
I3962
sg12
g13
(g17
S'\x00\x00\x00\x00\x00\x00$@'
p2868
tp2869
Rp2870
sa(dp2871
g7
I4
sg8
I423
sg9
I8
sg10
I4796
sg11
I3963
sg12
g13
(g17
S'\x00\x00\x00\x00\x00\x00 @'
p2872
tp2873
Rp2874
sa(dp2875
g7
I4
sg8
I405
sg9
I11
sg10
I4749
sg11
I3964
sg12
g13
(g17
S'\x00\x00\x00\x00\x00\x00.@'
p2876
tp2877
Rp2878
sa(dp2879
g7
I4
sg8
I440
sg9
I12
sg10
I4584
sg11
I3965
sg12
g13
(g17
S'\x00\x00\x00\x00\x00\x00"@'
p2880
tp2881
Rp2882
sa(dp2883
g7
I4
sg8
I457
sg9
I13
sg10
I2952
sg11
I3966
sg12
g13
(g17
S'\x00\x00\x00\x00\x00\x80T@'
p2884
tp2885
Rp2886
sa(dp2887
g7
I4
sg8
I428
sg9
I14
sg10
I4191
sg11
I3967
sg12
g13
(g17
S'\x00\x00\x00\x00\x00\x000@'
p2888
tp2889
Rp2890
sa(dp2891
g7
I4
sg8
I443
sg9
I15
sg10
I4926
sg11
I3968
sg12
g13
(g17
S'\x00\x00\x00\x00\x00\x00\x1c@'
p2892
tp2893
Rp2894
sa(dp2895
g7
I5
sg8
I448
sg9
I1
sg10
I4056
sg11
I3969
sg12
g13
(g17
S'\x00\x00\x00\x00\x00\xc0U@'
p2896
tp2897
Rp2898
sa(dp2899
g7
I5
sg8
I437
sg9
I2
sg10
I4767
sg11
I3970
sg12
g13
(g17
S'\x00\x00\x00\x00\x00\x00\x14@'
p2900
tp2901
Rp2902
sa(dp2903
g7
I5
sg8
I438
sg9
I4
sg10
I4686
sg11
I3971
sg12
g13
(g17
S'\x00\x00\x00\x00\x00\x00"@'
p2904
tp2905
Rp2906
sa(dp2907
g7
I5
sg8
I410
sg9
I7
sg10
I4234
sg11
I3972
sg12
g13
(g17
S'\x00\x00\x00\x00\x00\x005@'
p2908
tp2909
Rp2910
sa(dp2911
g7
I5
sg8
I475
sg9
I9
sg10
I5339
sg11
I3973
sg12
g13
(g17
S'\x00\x00\x00\x00\x00@Z@'
p2912
tp2913
Rp2914
sa(dp2915
g7
I5
sg8
I444
sg9
I12
sg10
I3375
sg11
I3974
sg12
g13
(g17
S'\x00\x00\x00\x00\x00\xe0c@'
p2916
tp2917
Rp2918
sa(dp2919
g7
I5
sg8
I403
sg9
I13
sg10
I4861
sg11
I3975
sg12
g13
(g17
S'\x00\x00\x00\x00\x00\x00\x00@'
p2920
tp2921
Rp2922
sa(dp2923
g7
I5
sg8
I416
sg9
I14
sg10
I4363
sg11
I3976
sg12
g13
(g17
S'\x00\x00\x00\x00\x00\x00.@'
p2924
tp2925
Rp2926
sa(dp2927
g7
I6
sg8
I408
sg9
I0
sg10
I4711
sg11
I3977
sg12
g13
(g17
S'\x00\x00\x00\x00\x00\x00 @'
p2928
tp2929
Rp2930
sa(dp2931
g7
I6
sg8
I466
sg9
I2
sg10
I5038
sg11
I3978
sg12
g13
(g17
S'\x00\x00\x00\x00\x00@Z@'
p2932
tp2933
Rp2934
sa(dp2935
g7
I6
sg8
I466
sg9
I3
sg10
I3458
sg11
I3979
sg12
g13
(g17
S'\x00\x00\x00\x00\x00\x80P@'
p2936
tp2937
Rp2938
sa(dp2939
g7
I6
sg8
I458
sg9
I4
sg10
I4836
sg11
I3980
sg12
g13
(g17
S'\x00\x00\x00\x00\x00\x00 @'
p2940
tp2941
Rp2942
sa(dp2943
g7
I6
sg8
I403
sg9
I6
sg10
I4971
sg11
I3981
sg12
g13
(g17
S'\x00\x00\x00\x00\x00\x002@'
p2944
tp2945
Rp2946
sa(dp2947
g7
I6
sg8
I429
sg9
I8
sg10
I4250
sg11
I3982
sg12
g13
(g17
S'\x00\x00\x00\x00\x00\x00<@'
p2948
tp2949
Rp2950
sa(dp2951
g7
I6
sg8
I488
sg9
I9
sg10
I2771
sg11
I3983
sg12
g13
(g17
S'\x00\x00\x00\x00\x00\x00J@'
p2952
tp2953
Rp2954
sa(dp2955
g7
I6
sg8
I419
sg9
I12
sg10
I4490
sg11
I3984
sg12
g13
(g17
S'\x00\x00\x00\x00\x00\x00.@'
p2956
tp2957
Rp2958
sa(dp2959
g7
I6
sg8
I428
sg9
I13
sg10
I4616
sg11
I3985
sg12
g13
(g17
S'\x00\x00\x00\x00\x00\x00*@'
p2960
tp2961
Rp2962
sa(dp2963
g7
I6
sg8
I406
sg9
I15
sg10
I4398
sg11
I3986
sg12
g13
(g17
S'\x00\x00\x00\x00\x00\x004@'
p2964
tp2965
Rp2966
sa(dp2967
g7
I7
sg8
I451
sg9
I0
sg10
I4218
sg11
I3987
sg12
g13
(g17
S'\x00\x00\x00\x00\x00\x00:@'
p2968
tp2969
Rp2970
sa(dp2971
g7
I7
sg8
I488
sg9
I1
sg10
I5121
sg11
I3988
sg12
g13
(g17
S'\x00\x00\x00\x00\x00\x00\x10@'
p2972
tp2973
Rp2974
sa(dp2975
g7
I7
sg8
I455
sg9
I5
sg10
I5099
sg11
I3989
sg12
g13
(g17
S'\x00\x00\x00\x00\x00\x00\x14@'
p2976
tp2977
Rp2978
sa(dp2979
g7
I7
sg8
I480
sg9
I7
sg10
I4739
sg11
I3990
sg12
g13
(g17
S'\x00\x00\x00\x00\x00\x00Q@'
p2980
tp2981
Rp2982
sa(dp2983
g7
I7
sg8
I439
sg9
I8
sg10
I4850
sg11
I3991
sg12
g13
(g17
S'\x00\x00\x00\x00\x00\x00\x1c@'
p2984
tp2985
Rp2986
sa(dp2987
g7
I7
sg8
I451
sg9
I9
sg10
I4663
sg11
I3992
sg12
g13
(g17
S'\x00\x00\x00\x00\x00\x00\x1c@'
p2988
tp2989
Rp2990
sa(dp2991
g7
I7
sg8
I430
sg9
I10
sg10
I4979
sg11
I3993
sg12
g13
(g17
S'\x00\x00\x00\x00\x00\x00\x00@'
p2992
tp2993
Rp2994
sa(dp2995
g7
I7
sg8
I451
sg9
I11
sg10
I3003
sg11
I3994
sg12
g13
(g17
S'\x00\x00\x00\x00\x00\xc0V@'
p2996
tp2997
Rp2998
sa(dp2999
g7
I7
sg8
I440
sg9
I13
sg10
I5034
sg11
I3995
sg12
g13
(g17
S'\x00\x00\x00\x00\x00\x00.@'
p3000
tp3001
Rp3002
sa(dp3003
g7
I7
sg8
I409
sg9
I14
sg10
I3610
sg11
I3996
sg12
g13
(g17
S'\x00\x00\x00\x00\x00@U@'
p3004
tp3005
Rp3006
sa(dp3007
g7
I7
sg8
I404
sg9
I15
sg10
I3940
sg11
I3997
sg12
g13
(g17
S'\x00\x00\x00\x00\x00\x80K@'
p3008
tp3009
Rp3010
sa(dp3011
g7
I8
sg8
I499
sg9
I1
sg10
I2840
sg11
I3998
sg12
g13
(g17
S'\x00\x00\x00\x00\x00\x00Q@'
p3012
tp3013
Rp3014
sa(dp3015
g7
I8
sg8
I483
sg9
I3
sg10
I4801
sg11
I3999
sg12
g13
(g17
S'\x00\x00\x00\x00\x00\x00\x18@'
p3016
tp3017
Rp3018
sa(dp3019
g7
I8
sg8
I433
sg9
I4
sg10
I4001
sg11
I4000
sg12
g13
(g17
S'\x00\x00\x00\x00\x00@R@'
p3020
tp3021
Rp3022
sa(dp3023
g7
I8
sg8
I430
sg9
I5
sg10
I4339
sg11
I4001
sg12
g13
(g17
S'\x00\x00\x00\x00\x00\x00*@'
p3024
tp3025
Rp3026
sa(dp3027
g7
I8
sg8
I459
sg9
I6
sg10
I5225
sg11
I4002
sg12
g13
(g17
S'\x00\x00\x00\x00\x00\x00 @'
p3028
tp3029
Rp3030
sa(dp3031
g7
I8
sg8
I439
sg9
I7
sg10
I4710
sg11
I4003
sg12
g13
(g17
S'\x00\x00\x00\x00\x00\x00,@'
p3032
tp3033
Rp3034
sa(dp3035
g7
I8
sg8
I464
sg9
I8
sg10
I4905
sg11
I4004
sg12
g13
(g17
S'\x00\x00\x00\x00\x00\x00\x1c@'
p3036
tp3037
Rp3038
sa(dp3039
g7
I8
sg8
I497
sg9
I11
sg10
I4732
sg11
I4005
sg12
g13
(g17
S'\x00\x00\x00\x00\x00\x00$@'
p3040
tp3041
Rp3042
sa(dp3043
g7
I8
sg8
I489
sg9
I13
sg10
I5130
sg11
I4006
sg12
g13
(g17
S'\x00\x00\x00\x00\x00\x00"@'
p3044
tp3045
Rp3046
sa(dp3047
g7
I8
sg8
I477
sg9
I14
sg10
I4562
sg11
I4007
sg12
g13
(g17
S'\x00\x00\x00\x00\x00\x00(@'
p3048
tp3049
Rp3050
sa(dp3051
g7
I8
sg8
I453
sg9
I15
sg10
I5111
sg11
I4008
sg12
g13
(g17
S'\x00\x00\x00\x00\x00@d@'
p3052
tp3053
Rp3054
sa(dp3055
g7
I9
sg8
I403
sg9
I3
sg10
I3851
sg11
I4009
sg12
g13
(g17
S'\x00\x00\x00\x00\x00\x80B@'
p3056
tp3057
Rp3058
sa(dp3059
g7
I9
sg8
I490
sg9
I4
sg10
I5009
sg11
I4010
sg12
g13
(g17
S'\x00\x00\x00\x00\x00\xc0P@'
p3060
tp3061
Rp3062
sa(dp3063
g7
I9
sg8
I422
sg9
I5
sg10
I4932
sg11
I4011
sg12
g13
(g17
S'\x00\x00\x00\x00\x00\x00\x10@'
p3064
tp3065
Rp3066
sa(dp3067
g7
I9
sg8
I496
sg9
I7
sg10
I4778
sg11
I4012
sg12
g13
(g17
S'\x00\x00\x00\x00\x00\x00\x10@'
p3068
tp3069
Rp3070
sa(dp3071
g7
I9
sg8
I469
sg9
I10
sg10
I3100
sg11
I4013
sg12
g13
(g17
S'\x00\x00\x00\x00\x00\x80\\@'
p3072
tp3073
Rp3074
sa(dp3075
g7
I9
sg8
I417
sg9
I11
sg10
I3627
sg11
I4014
sg12
g13
(g17
S'\x00\x00\x00\x00\x00\x80V@'
p3076
tp3077
Rp3078
sa(dp3079
g7
I9
sg8
I428
sg9
I12
sg10
I4696
sg11
I4015
sg12
g13
(g17
S'\x00\x00\x00\x00\x00\x00"@'
p3080
tp3081
Rp3082
sa(dp3083
g7
I9
sg8
I435
sg9
I13
sg10
I4204
sg11
I4016
sg12
g13
(g17
S'\x00\x00\x00\x00\x00\x004@'
p3084
tp3085
Rp3086
sa(dp3087
g7
I9
sg8
I464
sg9
I14
sg10
I5075
sg11
I4017
sg12
g13
(g17
S'\x00\x00\x00\x00\x00\x00\x14@'
p3088
tp3089
Rp3090
sa(dp3091
g7
I9
sg8
I437
sg9
I15
sg10
I4617
sg11
I4018
sg12
g13
(g17
S'\x00\x00\x00\x00\x00\x00.@'
p3092
tp3093
Rp3094
sa(dp3095
g7
I10
sg8
I429
sg9
I0
sg10
I4795
sg11
I4019
sg12
g13
(g17
S'\x00\x00\x00\x00\x00\x80@@'
p3096
tp3097
Rp3098
sa(dp3099
g7
I10
sg8
I434
sg9
I1
sg10
I4600
sg11
I4020
sg12
g13
(g17
S'\x00\x00\x00\x00\x00\x00&@'
p3100
tp3101
Rp3102
sa(dp3103
g7
I10
sg8
I434
sg9
I2
sg10
I4195
sg11
I4021
sg12
g13
(g17
S'\x00\x00\x00\x00\x00\x002@'
p3104
tp3105
Rp3106
sa(dp3107
g7
I10
sg8
I458
sg9
I4
sg10
I3346
sg11
I4022
sg12
g13
(g17
S'\x00\x00\x00\x00\x00\x00E@'
p3108
tp3109
Rp3110
sa(dp3111
g7
I10
sg8
I487
sg9
I5
sg10
I4627
sg11
I4023
sg12
g13
(g17
S'\x00\x00\x00\x00\x00\x00\x1c@'
p3112
tp3113
Rp3114
sa(dp3115
g7
I10
sg8
I456
sg9
I6
sg10
I5043
sg11
I4024
sg12
g13
(g17
S'\x00\x00\x00\x00\x00\x00.@'
p3116
tp3117
Rp3118
sa(dp3119
g7
I10
sg8
I494
sg9
I10
sg10
I4315
sg11
I4025
sg12
g13
(g17
S'\x00\x00\x00\x00\x00\x005@'
p3120
tp3121
Rp3122
sa(dp3123
g7
I10
sg8
I485
sg9
I11
sg10
I4774
sg11
I4026
sg12
g13
(g17
S'\x00\x00\x00\x00\x00\x00\xf0?'
p3124
tp3125
Rp3126
sa(dp3127
g7
I10
sg8
I439
sg9
I12
sg10
I3740
sg11
I4027
sg12
g13
(g17
S'\x00\x00\x00\x00\x00\x006@'
p3128
tp3129
Rp3130
sa(dp3131
g7
I10
sg8
I486
sg9
I14
sg10
I3038
sg11
I4028
sg12
g13
(g17
S'\x00\x00\x00\x00\x00@Z@'
p3132
tp3133
Rp3134
sa(dp3135
g7
I11
sg8
I460
sg9
I2
sg10
I4589
sg11
I4029
sg12
g13
(g17
S'\x00\x00\x00\x00\x00\x00,@'
p3136
tp3137
Rp3138
sa(dp3139
g7
I11
sg8
I489
sg9
I6
sg10
I2785
sg11
I4030
sg12
g13
(g17
S'\x00\x00\x00\x00\x00\x80K@'
p3140
tp3141
Rp3142
sa(dp3143
g7
I11
sg8
I473
sg9
I7
sg10
I4986
sg11
I4031
sg12
g13
(g17
S'\x00\x00\x00\x00\x00\x00.@'
p3144
tp3145
Rp3146
sa(dp3147
g7
I11
sg8
I413
sg9
I8
sg10
I4361
sg11
I4032
sg12
g13
(g17
S'\x00\x00\x00\x00\x00\x00,@'
p3148
tp3149
Rp3150
sa(dp3151
g7
I11
sg8
I430
sg9
I9
sg10
I3574
sg11
I4033
sg12
g13
(g17
S'\x00\x00\x00\x00\x00\x80T@'
p3152
tp3153
Rp3154
sa(dp3155
g7
I11
sg8
I409
sg9
I10
sg10
I4795
sg11
I4034
sg12
g13
(g17
S'\x00\x00\x00\x00\x00\x80L@'
p3156
tp3157
Rp3158
sa(dp3159
g7
I11
sg8
I448
sg9
I11
sg10
I4051
sg11
I4035
sg12
g13
(g17
S'\x00\x00\x00\x00\x00\x80U@'
p3160
tp3161
Rp3162
sa(dp3163
g7
I11
sg8
I454
sg9
I12
sg10
I4815
sg11
I4036
sg12
g13
(g17
S'\x00\x00\x00\x00\x00\x00\x08@'
p3164
tp3165
Rp3166
sa(dp3167
g7
I11
sg8
I457
sg9
I13
sg10
I4687
sg11
I4037
sg12
g13
(g17
S'\x00\x00\x00\x00\x00\x00*@'
p3168
tp3169
Rp3170
sa(dp3171
g7
I12
sg8
I494
sg9
I0
sg10
I4540
sg11
I4038
sg12
g13
(g17
S'\x00\x00\x00\x00\x00\x00&@'
p3172
tp3173
Rp3174
sa(dp3175
g7
I12
sg8
I480
sg9
I2
sg10
I4434
sg11
I4039
sg12
g13
(g17
S'\x00\x00\x00\x00\x00\x80B@'
p3176
tp3177
Rp3178
sa(dp3179
g7
I12
sg8
I465
sg9
I4
sg10
I4159
sg11
I4040
sg12
g13
(g17
S'\x00\x00\x00\x00\x00\x001@'
p3180
tp3181
Rp3182
sa(dp3183
g7
I12
sg8
I429
sg9
I5
sg10
I3505
sg11
I4041
sg12
g13
(g17
S'\x00\x00\x00\x00\x00\x00Q@'
p3184
tp3185
Rp3186
sa(dp3187
g7
I12
sg8
I414
sg9
I6
sg10
I4855
sg11
I4042
sg12
g13
(g17
S'\x00\x00\x00\x00\x00\x00\x08@'
p3188
tp3189
Rp3190
sa(dp3191
g7
I12
sg8
I403
sg9
I8
sg10
I2986
sg11
I4043
sg12
g13
(g17
S'\x00\x00\x00\x00\x00\x80S@'
p3192
tp3193
Rp3194
sa(dp3195
g7
I12
sg8
I446
sg9
I9
sg10
I4758
sg11
I4044
sg12
g13
(g17
S'\x00\x00\x00\x00\x00\x00\x14@'
p3196
tp3197
Rp3198
sa(dp3199
g7
I12
sg8
I409
sg9
I13
sg10
I3980
sg11
I4045
sg12
g13
(g17
S'\x00\x00\x00\x00\x00\x00P@'
p3200
tp3201
Rp3202
sa(dp3203
g7
I12
sg8
I401
sg9
I14
sg10
I4713
sg11
I4046
sg12
g13
(g17
S'\x00\x00\x00\x00\x00\x00\x1c@'
p3204
tp3205
Rp3206
sa(dp3207
g7
I13
sg8
I457
sg9
I1
sg10
I3317
sg11
I4047
sg12
g13
(g17
S'\x00\x00\x00\x00\x00\x00B@'
p3208
tp3209
Rp3210
sa(dp3211
g7
I13
sg8
I440
sg9
I2
sg10
I4679
sg11
I4048
sg12
g13
(g17
S'\x00\x00\x00\x00\x00\x00 @'
p3212
tp3213
Rp3214
sa(dp3215
g7
I13
sg8
I452
sg9
I3
sg10
I4602
sg11
I4049
sg12
g13
(g17
S'\x00\x00\x00\x00\x00\x00.@'
p3216
tp3217
Rp3218
sa(dp3219
g7
I13
sg8
I449
sg9
I4
sg10
I3105
sg11
I4050
sg12
g13
(g17
S'\x00\x00\x00\x00\x00\xc0[@'
p3220
tp3221
Rp3222
sa(dp3223
g7
I13
sg8
I490
sg9
I6
sg10
I4024
sg11
I4051
sg12
g13
(g17
S'\x00\x00\x00\x00\x00@V@'
p3224
tp3225
Rp3226
sa(dp3227
g7
I13
sg8
I440
sg9
I7
sg10
I5224
sg11
I4052
sg12
g13
(g17
S'\x00\x00\x00\x00\x00\x00&@'
p3228
tp3229
Rp3230
sa(dp3231
g7
I13
sg8
I466
sg9
I8
sg10
I4443
sg11
I4053
sg12
g13
(g17
S'\x00\x00\x00\x00\x00\x00.@'
p3232
tp3233
Rp3234
sa(dp3235
g7
I13
sg8
I420
sg9
I9
sg10
I4879
sg11
I4054
sg12
g13
(g17
S'\x00\x00\x00\x00\x00\x80B@'
p3236
tp3237
Rp3238
sa(dp3239
g7
I13
sg8
I495
sg9
I11
sg10
I5119
sg11
I4055
sg12
g13
(g17
S'\x00\x00\x00\x00\x00\x00\x14@'
p3240
tp3241
Rp3242
sa(dp3243
g7
I13
sg8
I424
sg9
I13
sg10
I4345
sg11
I4056
sg12
g13
(g17
S'\x00\x00\x00\x00\x00\x00*@'
p3244
tp3245
Rp3246
sa(dp3247
g7
I13
sg8
I429
sg9
I14
sg10
I4945
sg11
I4057
sg12
g13
(g17
S'\x00\x00\x00\x00\x00\x00 @'
p3248
tp3249
Rp3250
sa(dp3251
g7
I13
sg8
I453
sg9
I15
sg10
I4961
sg11
I4058
sg12
g13
(g17
S'\x00\x00\x00\x00\x00\x00*@'
p3252
tp3253
Rp3254
sa(dp3255
g7
I14
sg8
I492
sg9
I1
sg10
I4162
sg11
I4059
sg12
g13
(g17
S'\x00\x00\x00\x00\x00\x007@'
p3256
tp3257
Rp3258
sa(dp3259
g7
I14
sg8
I438
sg9
I2
sg10
I5176
sg11
I4060
sg12
g13
(g17
S'\x00\x00\x00\x00\x00\x000@'
p3260
tp3261
Rp3262
sa(dp3263
g7
I14
sg8
I485
sg9
I3
sg10
I2854
sg11
I4061
sg12
g13
(g17
S'\x00\x00\x00\x00\x00\x00Q@'
p3264
tp3265
Rp3266
sa(dp3267
g7
I14
sg8
I410
sg9
I6
sg10
I4494
sg11
I4062
sg12
g13
(g17
S'\x00\x00\x00\x00\x00\x00Z@'
p3268
tp3269
Rp3270
sa(dp3271
g7
I14
sg8
I402
sg9
I7
sg10
I3932
sg11
I4063
sg12
g13
(g17
S'\x00\x00\x00\x00\x00\x80J@'
p3272
tp3273
Rp3274
sa(dp3275
g7
I14
sg8
I483
sg9
I10
sg10
I4626
sg11
I4064
sg12
g13
(g17
S'\x00\x00\x00\x00\x00\x00\x18@'
p3276
tp3277
Rp3278
sa(dp3279
g7
I14
sg8
I473
sg9
I11
sg10
I4941
sg11
I4065
sg12
g13
(g17
S'\x00\x00\x00\x00\x00\x00:@'
p3280
tp3281
Rp3282
sa(dp3283
g7
I14
sg8
I485
sg9
I12
sg10
I4304
sg11
I4066
sg12
g13
(g17
S'\x00\x00\x00\x00\x00\x001@'
p3284
tp3285
Rp3286
sa(dp3287
g7
I14
sg8
I436
sg9
I14
sg10
I4783
sg11
I4067
sg12
g13
(g17
S'\x00\x00\x00\x00\x00\x00 @'
p3288
tp3289
Rp3290
sa(dp3291
g7
I15
sg8
I441
sg9
I0
sg10
I4863
sg11
I4068
sg12
g13
(g17
S'\x00\x00\x00\x00\x00\x00?@'
p3292
tp3293
Rp3294
sa(dp3295
g7
I15
sg8
I419
sg9
I1
sg10
I4695
sg11
I4069
sg12
g13
(g17
S'\x00\x00\x00\x00\x00\x00\x1c@'
p3296
tp3297
Rp3298
sa(dp3299
g7
I15
sg8
I404
sg9
I2
sg10
I2960
sg11
I4070
sg12
g13
(g17
S'\x00\x00\x00\x00\x00@R@'
p3300
tp3301
Rp3302
sa(dp3303
g7
I15
sg8
I486
sg9
I3
sg10
I4863
sg11
I4071
sg12
g13
(g17
S'\x00\x00\x00\x00\x00\x00\x08@'
p3304
tp3305
Rp3306
sa(dp3307
g7
I15
sg8
I435
sg9
I5
sg10
I5352
sg11
I4072
sg12
g13
(g17
S'\x00\x00\x00\x00\x00\x00T@'
p3308
tp3309
Rp3310
sa(dp3311
g7
I15
sg8
I449
sg9
I7
sg10
I5343
sg11
I4073
sg12
g13
(g17
S'\x00\x00\x00\x00\x00\x00\x14@'
p3312
tp3313
Rp3314
sa(dp3315
g7
I15
sg8
I460
sg9
I8
sg10
I5334
sg11
I4074
sg12
g13
(g17
S'\x00\x00\x00\x00\x00\x00\x00@'
p3316
tp3317
Rp3318
sa(dp3319
g7
I15
sg8
I428
sg9
I9
sg10
I3761
sg11
I4075
sg12
g13
(g17
S'\x00\x00\x00\x00\x00\x008@'
p3320
tp3321
Rp3322
sa(dp3323
g7
I15
sg8
I414
sg9
I10
sg10
I3605
sg11
I4076
sg12
g13
(g17
S'\x00\x00\x00\x00\x00@U@'
p3324
tp3325
Rp3326
sa(dp3327
g7
I15
sg8
I495
sg9
I13
sg10
I5312
sg11
I4077
sg12
g13
(g17
S'\x00\x00\x00\x00\x00\x00*@'
p3328
tp3329
Rp3330
sa(dp3331
g7
I15
sg8
I444
sg9
I14
sg10
I4500
sg11
I4078
sg12
g13
(g17
S'\x00\x00\x00\x00\x00\x006@'
p3332
tp3333
Rp3334
sa(dp3335
g7
I15
sg8
I446
sg9
I15
sg10
I5373
sg11
I4079
sg12
g13
(g17
S'\x00\x00\x00\x00\x00\x00(@'
p3336
tp3337
Rp3338
sassS'NN'
p3339
(dp3340
g3
I0
sg4
(lp3341
(dp3342
g7
I0
sg8
I46
sg9
I0
sg10
I2912
sg11
I3250
sg12
g22
sa(dp3343
g7
I0
sg8
I16
sg9
I1
sg10
I1012
sg11
I3251
sg12
g26
sa(dp3344
g7
I0
sg8
I84
sg9
I3
sg10
I5034
sg11
I3252
sg12
g30
sa(dp3345
g7
I0
sg8
I29
sg9
I4
sg10
I1648
sg11
I3253
sg12
g34
sa(dp3346
g7
I0
sg8
I73
sg9
I5
sg10
I4517
sg11
I3254
sg12
g38
sa(dp3347
g7
I0
sg8
I61
sg9
I7
sg10
I3917
sg11
I3255
sg12
g42
sa(dp3348
g7
I0
sg8
I81
sg9
I8
sg10
I4753
sg11
I3256
sg12
g46
sa(dp3349
g7
I0
sg8
I40
sg9
I10
sg10
I2499
sg11
I3257
sg12
g50
sa(dp3350
g7
I0
sg8
I70
sg9
I13
sg10
I4227
sg11
I3258
sg12
g54
sa(dp3351
g7
I1
sg8
I96
sg9
I0
sg10
I5905
sg11
I3259
sg12
g58
sa(dp3352
g7
I1
sg8
I56
sg9
I1
sg10
I3466
sg11
I3260
sg12
g62
sa(dp3353
g7
I1
sg8
I24
sg9
I2
sg10
I1434
sg11
I3261
sg12
g66
sa(dp3354
g7
I1
sg8
I14
sg9
I3
sg10
I869
sg11
I3262
sg12
g70
sa(dp3355
g7
I1
sg8
I76
sg9
I4
sg10
I4686
sg11
I3263
sg12
g74
sa(dp3356
g7
I1
sg8
I19
sg9
I5
sg10
I1055
sg11
I3264
sg12
g78
sa(dp3357
g7
I1
sg8
I25
sg9
I7
sg10
I1573
sg11
I3265
sg12
g82
sa(dp3358
g7
I1
sg8
I4
sg9
I10
sg10
I359
sg11
I3266
sg12
g86
sa(dp3359
g7
I1
sg8
I4
sg9
I11
sg10
I311
sg11
I3267
sg12
g90
sa(dp3360
g7
I1
sg8
I89
sg9
I12
sg10
I5496
sg11
I3268
sg12
g94
sa(dp3361
g7
I1
sg8
I10
sg9
I14
sg10
I664
sg11
I3269
sg12
g98
sa(dp3362
g7
I1
sg8
I54
sg9
I15
sg10
I3393
sg11
I3270
sg12
g102
sa(dp3363
g7
I2
sg8
I60
sg9
I0
sg10
I3804
sg11
I3271
sg12
g106
sa(dp3364
g7
I2
sg8
I7
sg9
I1
sg10
I471
sg11
I3272
sg12
g110
sa(dp3365
g7
I2
sg8
I68
sg9
I2
sg10
I4226
sg11
I3273
sg12
g114
sa(dp3366
g7
I2
sg8
I55
sg9
I3
sg10
I3441
sg11
I3274
sg12
g118
sa(dp3367
g7
I2
sg8
I29
sg9
I5
sg10
I1855
sg11
I3275
sg12
g122
sa(dp3368
g7
I2
sg8
I38
sg9
I6
sg10
I2470
sg11
I3276
sg12
g126
sa(dp3369
g7
I2
sg8
I22
sg9
I8
sg10
I1282
sg11
I3277
sg12
g130
sa(dp3370
g7
I2
sg8
I16
sg9
I9
sg10
I1000
sg11
I3278
sg12
g134
sa(dp3371
g7
I2
sg8
I48
sg9
I10
sg10
I3018
sg11
I3279
sg12
g138
sa(dp3372
g7
I2
sg8
I98
sg9
I11
sg10
I5967
sg11
I3280
sg12
g142
sa(dp3373
g7
I2
sg8
I23
sg9
I13
sg10
I1405
sg11
I3281
sg12
g146
sa(dp3374
g7
I2
sg8
I48
sg9
I14
sg10
I2940
sg11
I3282
sg12
g150
sa(dp3375
g7
I2
sg8
I80
sg9
I15
sg10
I4755
sg11
I3283
sg12
g154
sa(dp3376
g7
I3
sg8
I17
sg9
I2
sg10
I1048
sg11
I3284
sg12
g158
sa(dp3377
g7
I3
sg8
I13
sg9
I6
sg10
I840
sg11
I3285
sg12
g162
sa(dp3378
g7
I3
sg8
I86
sg9
I8
sg10
I5332
sg11
I3286
sg12
g166
sa(dp3379
g7
I3
sg8
I60
sg9
I9
sg10
I3798
sg11
I3287
sg12
g170
sa(dp3380
g7
I3
sg8
I83
sg9
I10
sg10
I4870
sg11
I3288
sg12
g174
sa(dp3381
g7
I3
sg8
I72
sg9
I11
sg10
I4397
sg11
I3289
sg12
g178
sa(dp3382
g7
I3
sg8
I70
sg9
I12
sg10
I4238
sg11
I3290
sg12
g182
sa(dp3383
g7
I3
sg8
I24
sg9
I13
sg10
I1439
sg11
I3291
sg12
g186
sa(dp3384
g7
I3
sg8
I21
sg9
I14
sg10
I1248
sg11
I3292
sg12
g190
sa(dp3385
g7
I3
sg8
I8
sg9
I15
sg10
I609
sg11
I3293
sg12
g194
sa(dp3386
g7
I4
sg8
I43
sg9
I0
sg10
I2652
sg11
I3294
sg12
g198
sa(dp3387
g7
I4
sg8
I6
sg9
I1
sg10
I434
sg11
I3295
sg12
g202
sa(dp3388
g7
I4
sg8
I18
sg9
I2
sg10
I1115
sg11
I3296
sg12
g206
sa(dp3389
g7
I4
sg8
I16
sg9
I3
sg10
I1017
sg11
I3297
sg12
g210
sa(dp3390
g7
I4
sg8
I54
sg9
I5
sg10
I3395
sg11
I3298
sg12
g214
sa(dp3391
g7
I4
sg8
I23
sg9
I8
sg10
I1314
sg11
I3299
sg12
g218
sa(dp3392
g7
I4
sg8
I5
sg9
I11
sg10
I398
sg11
I3300
sg12
g222
sa(dp3393
g7
I4
sg8
I40
sg9
I12
sg10
I2502
sg11
I3301
sg12
g226
sa(dp3394
g7
I4
sg8
I57
sg9
I13
sg10
I3586
sg11
I3302
sg12
g230
sa(dp3395
g7
I4
sg8
I28
sg9
I14
sg10
I1611
sg11
I3303
sg12
g234
sa(dp3396
g7
I4
sg8
I43
sg9
I15
sg10
I2684
sg11
I3304
sg12
g238
sa(dp3397
g7
I5
sg8
I48
sg9
I1
sg10
I3047
sg11
I3305
sg12
g242
sa(dp3398
g7
I5
sg8
I37
sg9
I2
sg10
I2316
sg11
I3306
sg12
g246
sa(dp3399
g7
I5
sg8
I38
sg9
I4
sg10
I2359
sg11
I3307
sg12
g250
sa(dp3400
g7
I5
sg8
I10
sg9
I7
sg10
I653
sg11
I3308
sg12
g254
sa(dp3401
g7
I5
sg8
I75
sg9
I9
sg10
I4645
sg11
I3309
sg12
g258
sa(dp3402
g7
I5
sg8
I44
sg9
I12
sg10
I2827
sg11
I3310
sg12
g262
sa(dp3403
g7
I5
sg8
I3
sg9
I13
sg10
I133
sg11
I3311
sg12
g266
sa(dp3404
g7
I5
sg8
I16
sg9
I14
sg10
I1014
sg11
I3312
sg12
g270
sa(dp3405
g7
I6
sg8
I8
sg9
I0
sg10
I503
sg11
I3313
sg12
g274
sa(dp3406
g7
I6
sg8
I66
sg9
I2
sg10
I4116
sg11
I3314
sg12
g278
sa(dp3407
g7
I6
sg8
I66
sg9
I3
sg10
I4190
sg11
I3315
sg12
g282
sa(dp3408
g7
I6
sg8
I58
sg9
I4
sg10
I3723
sg11
I3316
sg12
g286
sa(dp3409
g7
I6
sg8
I3
sg9
I6
sg10
I149
sg11
I3317
sg12
g290
sa(dp3410
g7
I6
sg8
I29
sg9
I8
sg10
I1671
sg11
I3318
sg12
g294
sa(dp3411
g7
I6
sg8
I88
sg9
I9
sg10
I5464
sg11
I3319
sg12
g298
sa(dp3412
g7
I6
sg8
I19
sg9
I12
sg10
I1054
sg11
I3320
sg12
g302
sa(dp3413
g7
I6
sg8
I28
sg9
I13
sg10
I1608
sg11
I3321
sg12
g306
sa(dp3414
g7
I6
sg8
I6
sg9
I15
sg10
I442
sg11
I3322
sg12
g310
sa(dp3415
g7
I7
sg8
I51
sg9
I0
sg10
I3331
sg11
I3323
sg12
g314
sa(dp3416
g7
I7
sg8
I88
sg9
I1
sg10
I5391
sg11
I3324
sg12
g318
sa(dp3417
g7
I7
sg8
I55
sg9
I5
sg10
I3424
sg11
I3325
sg12
g322
sa(dp3418
g7
I7
sg8
I80
sg9
I7
sg10
I4837
sg11
I3326
sg12
g326
sa(dp3419
g7
I7
sg8
I39
sg9
I8
sg10
I2356
sg11
I3327
sg12
g330
sa(dp3420
g7
I7
sg8
I51
sg9
I9
sg10
I3363
sg11
I3328
sg12
g334
sa(dp3421
g7
I7
sg8
I30
sg9
I10
sg10
I1881
sg11
I3329
sg12
g338
sa(dp3422
g7
I7
sg8
I51
sg9
I11
sg10
I3209
sg11
I3330
sg12
g342
sa(dp3423
g7
I7
sg8
I40
sg9
I13
sg10
I2508
sg11
I3331
sg12
g346
sa(dp3424
g7
I7
sg8
I9
sg9
I14
sg10
I807
sg11
I3332
sg12
g350
sa(dp3425
g7
I7
sg8
I4
sg9
I15
sg10
I313
sg11
I3333
sg12
g354
sa(dp3426
g7
I8
sg8
I99
sg9
I1
sg10
I6059
sg11
I3334
sg12
g358
sa(dp3427
g7
I8
sg8
I83
sg9
I3
sg10
I4865
sg11
I3335
sg12
g362
sa(dp3428
g7
I8
sg8
I33
sg9
I4
sg10
I2081
sg11
I3336
sg12
g366
sa(dp3429
g7
I8
sg8
I30
sg9
I5
sg10
I1892
sg11
I3337
sg12
g370
sa(dp3430
g7
I8
sg8
I59
sg9
I6
sg10
I3755
sg11
I3338
sg12
g374
sa(dp3431
g7
I8
sg8
I39
sg9
I7
sg10
I2363
sg11
I3339
sg12
g378
sa(dp3432
g7
I8
sg8
I64
sg9
I8
sg10
I3946
sg11
I3340
sg12
g382
sa(dp3433
g7
I8
sg8
I97
sg9
I11
sg10
I5939
sg11
I3341
sg12
g386
sa(dp3434
g7
I8
sg8
I89
sg9
I13
sg10
I5497
sg11
I3342
sg12
g390
sa(dp3435
g7
I8
sg8
I77
sg9
I14
sg10
I4722
sg11
I3343
sg12
g394
sa(dp3436
g7
I8
sg8
I53
sg9
I15
sg10
I3278
sg11
I3344
sg12
g398
sa(dp3437
g7
I9
sg8
I3
sg9
I3
sg10
I168
sg11
I3345
sg12
g402
sa(dp3438
g7
I9
sg8
I90
sg9
I4
sg10
I5579
sg11
I3346
sg12
g406
sa(dp3439
g7
I9
sg8
I22
sg9
I5
sg10
I1276
sg11
I3347
sg12
g410
sa(dp3440
g7
I9
sg8
I96
sg9
I7
sg10
I5836
sg11
I3348
sg12
g414
sa(dp3441
g7
I9
sg8
I69
sg9
I10
sg10
I4351
sg11
I3349
sg12
g418
sa(dp3442
g7
I9
sg8
I17
sg9
I11
sg10
I1156
sg11
I3350
sg12
g422
sa(dp3443
g7
I9
sg8
I28
sg9
I12
sg10
I1604
sg11
I3351
sg12
g426
sa(dp3444
g7
I9
sg8
I35
sg9
I13
sg10
I2203
sg11
I3352
sg12
g430
sa(dp3445
g7
I9
sg8
I64
sg9
I14
sg10
I3944
sg11
I3353
sg12
g434
sa(dp3446
g7
I9
sg8
I37
sg9
I15
sg10
I2326
sg11
I3354
sg12
g438
sa(dp3447
g7
I10
sg8
I29
sg9
I0
sg10
I1676
sg11
I3355
sg12
g442
sa(dp3448
g7
I10
sg8
I34
sg9
I1
sg10
I2159
sg11
I3356
sg12
g446
sa(dp3449
g7
I10
sg8
I34
sg9
I2
sg10
I2123
sg11
I3357
sg12
g450
sa(dp3450
g7
I10
sg8
I58
sg9
I4
sg10
I3690
sg11
I3358
sg12
g454
sa(dp3451
g7
I10
sg8
I87
sg9
I5
sg10
I5363
sg11
I3359
sg12
g458
sa(dp3452
g7
I10
sg8
I56
sg9
I6
sg10
I3480
sg11
I3360
sg12
g462
sa(dp3453
g7
I10
sg8
I94
sg9
I10
sg10
I5771
sg11
I3361
sg12
g466
sa(dp3454
g7
I10
sg8
I85
sg9
I11
sg10
I5059
sg11
I3362
sg12
g470
sa(dp3455
g7
I10
sg8
I39
sg9
I12
sg10
I2371
sg11
I3363
sg12
g474
sa(dp3456
g7
I10
sg8
I86
sg9
I14
sg10
I5322
sg11
I3364
sg12
g478
sa(dp3457
g7
I11
sg8
I60
sg9
I2
sg10
I3793
sg11
I3365
sg12
g482
sa(dp3458
g7
I11
sg8
I89
sg9
I6
sg10
I5682
sg11
I3366
sg12
g486
sa(dp3459
g7
I11
sg8
I73
sg9
I7
sg10
I4436
sg11
I3367
sg12
g490
sa(dp3460
g7
I11
sg8
I13
sg9
I8
sg10
I842
sg11
I3368
sg12
g494
sa(dp3461
g7
I11
sg8
I30
sg9
I9
sg10
I1986
sg11
I3369
sg12
g498
sa(dp3462
g7
I11
sg8
I9
sg9
I10
sg10
I690
sg11
I3370
sg12
g502
sa(dp3463
g7
I11
sg8
I48
sg9
I11
sg10
I3046
sg11
I3371
sg12
g506
sa(dp3464
g7
I11
sg8
I54
sg9
I12
sg10
I3388
sg11
I3372
sg12
g510
sa(dp3465
g7
I11
sg8
I57
sg9
I13
sg10
I3624
sg11
I3373
sg12
g514
sa(dp3466
g7
I12
sg8
I94
sg9
I0
sg10
I5761
sg11
I3374
sg12
g518
sa(dp3467
g7
I12
sg8
I80
sg9
I2
sg10
I4806
sg11
I3375
sg12
g522
sa(dp3468
g7
I12
sg8
I65
sg9
I4
sg10
I3987
sg11
I3376
sg12
g526
sa(dp3469
g7
I12
sg8
I29
sg9
I5
sg10
I1769
sg11
I3377
sg12
g530
sa(dp3470
g7
I12
sg8
I14
sg9
I6
sg10
I869
sg11
I3378
sg12
g534
sa(dp3471
g7
I12
sg8
I3
sg9
I8
sg10
I234
sg11
I3379
sg12
g538
sa(dp3472
g7
I12
sg8
I46
sg9
I9
sg10
I2855
sg11
I3380
sg12
g542
sa(dp3473
g7
I12
sg8
I9
sg9
I13
sg10
I697
sg11
I3381
sg12
g546
sa(dp3474
g7
I12
sg8
I1
sg9
I14
sg10
I30
sg11
I3382
sg12
g550
sa(dp3475
g7
I13
sg8
I57
sg9
I1
sg10
I3540
sg11
I3383
sg12
g554
sa(dp3476
g7
I13
sg8
I40
sg9
I2
sg10
I2541
sg11
I3384
sg12
g558
sa(dp3477
g7
I13
sg8
I52
sg9
I3
sg10
I3107
sg11
I3385
sg12
g562
sa(dp3478
g7
I13
sg8
I49
sg9
I4
sg10
I3070
sg11
I3386
sg12
g566
sa(dp3479
g7
I13
sg8
I90
sg9
I6
sg10
I5610
sg11
I3387
sg12
g570
sa(dp3480
g7
I13
sg8
I40
sg9
I7
sg10
I2504
sg11
I3388
sg12
g574
sa(dp3481
g7
I13
sg8
I66
sg9
I8
sg10
I3984
sg11
I3389
sg12
g578
sa(dp3482
g7
I13
sg8
I20
sg9
I9
sg10
I1215
sg11
I3390
sg12
g582
sa(dp3483
g7
I13
sg8
I95
sg9
I11
sg10
I5800
sg11
I3391
sg12
g586
sa(dp3484
g7
I13
sg8
I24
sg9
I13
sg10
I1477
sg11
I3392
sg12
g590
sa(dp3485
g7
I13
sg8
I29
sg9
I14
sg10
I1651
sg11
I3393
sg12
g594
sa(dp3486
g7
I13
sg8
I53
sg9
I15
sg10
I3316
sg11
I3394
sg12
g598
sa(dp3487
g7
I14
sg8
I92
sg9
I1
sg10
I5727
sg11
I3395
sg12
g602
sa(dp3488
g7
I14
sg8
I38
sg9
I2
sg10
I2366
sg11
I3396
sg12
g606
sa(dp3489
g7
I14
sg8
I85
sg9
I3
sg10
I5168
sg11
I3397
sg12
g610
sa(dp3490
g7
I14
sg8
I10
sg9
I6
sg10
I761
sg11
I3398
sg12
g614
sa(dp3491
g7
I14
sg8
I2
sg9
I7
sg10
I107
sg11
I3399
sg12
g618
sa(dp3492
g7
I14
sg8
I83
sg9
I10
sg10
I4901
sg11
I3400
sg12
g622
sa(dp3493
g7
I14
sg8
I73
sg9
I11
sg10
I4447
sg11
I3401
sg12
g626
sa(dp3494
g7
I14
sg8
I85
sg9
I12
sg10
I5075
sg11
I3402
sg12
g630
sa(dp3495
g7
I14
sg8
I36
sg9
I14
sg10
I2320
sg11
I3403
sg12
g634
sa(dp3496
g7
I15
sg8
I41
sg9
I0
sg10
I46
sg11
I3404
sg12
g638
sa(dp3497
g7
I15
sg8
I19
sg9
I1
sg10
I12
sg11
I3405
sg12
g642
sa(dp3498
g7
I15
sg8
I4
sg9
I2
sg10
I206
sg11
I3406
sg12
g646
sa(dp3499
g7
I15
sg8
I86
sg9
I3
sg10
I127
sg11
I3407
sg12
g650
sa(dp3500
g7
I15
sg8
I35
sg9
I5
sg10
I283
sg11
I3408
sg12
g654
sa(dp3501
g7
I15
sg8
I49
sg9
I7
sg10
I274
sg11
I3409
sg12
g658
sa(dp3502
g7
I15
sg8
I60
sg9
I8
sg10
I265
sg11
I3410
sg12
g662
sa(dp3503
g7
I15
sg8
I28
sg9
I9
sg10
I371
sg11
I3411
sg12
g666
sa(dp3504
g7
I15
sg8
I14
sg9
I10
sg10
I570
sg11
I3412
sg12
g670
sa(dp3505
g7
I15
sg8
I95
sg9
I13
sg10
I502
sg11
I3413
sg12
g674
sa(dp3506
g7
I15
sg8
I44
sg9
I14
sg10
I799
sg11
I3414
sg12
g678
sa(dp3507
g7
I15
sg8
I46
sg9
I15
sg10
I608
sg11
I3415
sg12
g682
sa(dp3508
g7
I0
sg8
I146
sg9
I0
sg10
I8944
sg11
I3416
sg12
g686
sa(dp3509
g7
I0
sg8
I116
sg9
I1
sg10
I7124
sg11
I3417
sg12
g690
sa(dp3510
g7
I0
sg8
I184
sg9
I3
sg10
I11347
sg11
I3418
sg12
g694
sa(dp3511
g7
I0
sg8
I129
sg9
I4
sg10
I1553
sg11
I3419
sg12
g698
sa(dp3512
g7
I0
sg8
I173
sg9
I5
sg10
I10909
sg11
I3420
sg12
g702
sa(dp3513
g7
I0
sg8
I161
sg9
I7
sg10
I10202
sg11
I3421
sg12
g706
sa(dp3514
g7
I0
sg8
I181
sg9
I8
sg10
I11065
sg11
I3422
sg12
g710
sa(dp3515
g7
I0
sg8
I140
sg9
I10
sg10
I2405
sg11
I3423
sg12
g714
sa(dp3516
g7
I0
sg8
I170
sg9
I13
sg10
I10720
sg11
I3424
sg12
g718
sa(dp3517
g7
I1
sg8
I196
sg9
I0
sg10
I12007
sg11
I3425
sg12
g722
sa(dp3518
g7
I1
sg8
I156
sg9
I1
sg10
I3367
sg11
I3426
sg12
g726
sa(dp3519
g7
I1
sg8
I124
sg9
I2
sg10
I1339
sg11
I3427
sg12
g730
sa(dp3520
g7
I1
sg8
I114
sg9
I3
sg10
I6986
sg11
I3428
sg12
g734
sa(dp3521
g7
I1
sg8
I176
sg9
I4
sg10
I11078
sg11
I3429
sg12
g738
sa(dp3522
g7
I1
sg8
I119
sg9
I5
sg10
I7269
sg11
I3430
sg12
g742
sa(dp3523
g7
I1
sg8
I125
sg9
I7
sg10
I7647
sg11
I3431
sg12
g746
sa(dp3524
g7
I1
sg8
I104
sg9
I10
sg10
I6411
sg11
I3432
sg12
g750
sa(dp3525
g7
I1
sg8
I104
sg9
I11
sg10
I6343
sg11
I3433
sg12
g754
sa(dp3526
g7
I1
sg8
I189
sg9
I12
sg10
I11597
sg11
I3434
sg12
g758
sa(dp3527
g7
I1
sg8
I110
sg9
I14
sg10
I596
sg11
I3435
sg12
g762
sa(dp3528
g7
I1
sg8
I154
sg9
I15
sg10
I9509
sg11
I3436
sg12
g766
sa(dp3529
g7
I2
sg8
I160
sg9
I0
sg10
I10114
sg11
I3437
sg12
g770
sa(dp3530
g7
I2
sg8
I107
sg9
I1
sg10
I6523
sg11
I3438
sg12
g774
sa(dp3531
g7
I2
sg8
I168
sg9
I2
sg10
I4139
sg11
I3439
sg12
g778
sa(dp3532
g7
I2
sg8
I155
sg9
I3
sg10
I9784
sg11
I3440
sg12
g782
sa(dp3533
g7
I2
sg8
I129
sg9
I5
sg10
I7929
sg11
I3441
sg12
g786
sa(dp3534
g7
I2
sg8
I138
sg9
I6
sg10
I8544
sg11
I3442
sg12
g790
sa(dp3535
g7
I2
sg8
I122
sg9
I8
sg10
I7356
sg11
I3443
sg12
g794
sa(dp3536
g7
I2
sg8
I116
sg9
I9
sg10
I901
sg11
I3444
sg12
g798
sa(dp3537
g7
I2
sg8
I148
sg9
I10
sg10
I2971
sg11
I3445
sg12
g802
sa(dp3538
g7
I2
sg8
I198
sg9
I11
sg10
I12069
sg11
I3446
sg12
g806
sa(dp3539
g7
I2
sg8
I123
sg9
I13
sg10
I7479
sg11
I3447
sg12
g810
sa(dp3540
g7
I2
sg8
I148
sg9
I14
sg10
I9084
sg11
I3448
sg12
g814
sa(dp3541
g7
I2
sg8
I180
sg9
I15
sg10
I11068
sg11
I3449
sg12
g818
sa(dp3542
g7
I3
sg8
I117
sg9
I2
sg10
I955
sg11
I3450
sg12
g822
sa(dp3543
g7
I3
sg8
I113
sg9
I6
sg10
I6955
sg11
I3451
sg12
g826
sa(dp3544
g7
I3
sg8
I186
sg9
I8
sg10
I11510
sg11
I3452
sg12
g830
sa(dp3545
g7
I3
sg8
I160
sg9
I9
sg10
I10102
sg11
I3453
sg12
g834
sa(dp3546
g7
I3
sg8
I183
sg9
I10
sg10
I11183
sg11
I3454
sg12
g838
sa(dp3547
g7
I3
sg8
I172
sg9
I11
sg10
I10789
sg11
I3455
sg12
g842
sa(dp3548
g7
I3
sg8
I170
sg9
I12
sg10
I10742
sg11
I3456
sg12
g846
sa(dp3549
g7
I3
sg8
I124
sg9
I13
sg10
I7551
sg11
I3457
sg12
g850
sa(dp3550
g7
I3
sg8
I121
sg9
I14
sg10
I7322
sg11
I3458
sg12
g854
sa(dp3551
g7
I3
sg8
I108
sg9
I15
sg10
I6661
sg11
I3459
sg12
g858
sa(dp3552
g7
I4
sg8
I143
sg9
I0
sg10
I8684
sg11
I3460
sg12
g862
sa(dp3553
g7
I4
sg8
I106
sg9
I1
sg10
I6478
sg11
I3461
sg12
g866
sa(dp3554
g7
I4
sg8
I118
sg9
I2
sg10
I1049
sg11
I3462
sg12
g870
sa(dp3555
g7
I4
sg8
I116
sg9
I3
sg10
I7134
sg11
I3463
sg12
g874
sa(dp3556
g7
I4
sg8
I154
sg9
I5
sg10
I9513
sg11
I3464
sg12
g878
sa(dp3557
g7
I4
sg8
I123
sg9
I8
sg10
I7388
sg11
I3465
sg12
g882
sa(dp3558
g7
I4
sg8
I105
sg9
I11
sg10
I6450
sg11
I3466
sg12
g886
sa(dp3559
g7
I4
sg8
I140
sg9
I12
sg10
I8570
sg11
I3467
sg12
g890
sa(dp3560
g7
I4
sg8
I157
sg9
I13
sg10
I9929
sg11
I3468
sg12
g894
sa(dp3561
g7
I4
sg8
I128
sg9
I14
sg10
I7677
sg11
I3469
sg12
g898
sa(dp3562
g7
I4
sg8
I143
sg9
I15
sg10
I8716
sg11
I3470
sg12
g902
sa(dp3563
g7
I5
sg8
I148
sg9
I1
sg10
I9030
sg11
I3471
sg12
g906
sa(dp3564
g7
I5
sg8
I137
sg9
I2
sg10
I2221
sg11
I3472
sg12
g910
sa(dp3565
g7
I5
sg8
I138
sg9
I4
sg10
I2268
sg11
I3473
sg12
g914
sa(dp3566
g7
I5
sg8
I110
sg9
I7
sg10
I574
sg11
I3474
sg12
g918
sa(dp3567
g7
I5
sg8
I175
sg9
I9
sg10
I11037
sg11
I3475
sg12
g922
sa(dp3568
g7
I5
sg8
I144
sg9
I12
sg10
I8859
sg11
I3476
sg12
g926
sa(dp3569
g7
I5
sg8
I103
sg9
I13
sg10
I35
sg11
I3477
sg12
g930
sa(dp3570
g7
I5
sg8
I116
sg9
I14
sg10
I7128
sg11
I3478
sg12
g934
sa(dp3571
g7
I6
sg8
I108
sg9
I0
sg10
I6555
sg11
I3479
sg12
g938
sa(dp3572
g7
I6
sg8
I166
sg9
I2
sg10
I10441
sg11
I3480
sg12
g942
sa(dp3573
g7
I6
sg8
I166
sg9
I3
sg10
I10517
sg11
I3481
sg12
g946
sa(dp3574
g7
I6
sg8
I158
sg9
I4
sg10
I10066
sg11
I3482
sg12
g950
sa(dp3575
g7
I6
sg8
I103
sg9
I6
sg10
I67
sg11
I3483
sg12
g954
sa(dp3576
g7
I6
sg8
I129
sg9
I8
sg10
I7740
sg11
I3484
sg12
g958
sa(dp3577
g7
I6
sg8
I188
sg9
I9
sg10
I11668
sg11
I3485
sg12
g962
sa(dp3578
g7
I6
sg8
I119
sg9
I12
sg10
I7267
sg11
I3486
sg12
g966
sa(dp3579
g7
I6
sg8
I128
sg9
I13
sg10
I7671
sg11
I3487
sg12
g970
sa(dp3580
g7
I6
sg8
I106
sg9
I15
sg10
I6494
sg11
I3488
sg12
g974
sa(dp3581
g7
I7
sg8
I151
sg9
I0
sg10
I9409
sg11
I3489
sg12
g978
sa(dp3582
g7
I7
sg8
I188
sg9
I1
sg10
I11595
sg11
I3490
sg12
g982
sa(dp3583
g7
I7
sg8
I155
sg9
I5
sg10
I3329
sg11
I3491
sg12
g986
sa(dp3584
g7
I7
sg8
I180
sg9
I7
sg10
I11150
sg11
I3492
sg12
g990
sa(dp3585
g7
I7
sg8
I139
sg9
I8
sg10
I2263
sg11
I3493
sg12
g994
sa(dp3586
g7
I7
sg8
I151
sg9
I9
sg10
I9441
sg11
I3494
sg12
g998
sa(dp3587
g7
I7
sg8
I130
sg9
I10
sg10
I1783
sg11
I3495
sg12
g1002
sa(dp3588
g7
I7
sg8
I151
sg9
I11
sg10
I9287
sg11
I3496
sg12
g1006
sa(dp3589
g7
I7
sg8
I140
sg9
I13
sg10
I8582
sg11
I3497
sg12
g1010
sa(dp3590
g7
I7
sg8
I109
sg9
I14
sg10
I6770
sg11
I3498
sg12
g1014
sa(dp3591
g7
I7
sg8
I104
sg9
I15
sg10
I6347
sg11
I3499
sg12
g1018
sa(dp3592
g7
I8
sg8
I199
sg9
I1
sg10
I12161
sg11
I3500
sg12
g1022
sa(dp3593
g7
I8
sg8
I183
sg9
I3
sg10
I11173
sg11
I3501
sg12
g1026
sa(dp3594
g7
I8
sg8
I133
sg9
I4
sg10
I8155
sg11
I3502
sg12
g1030
sa(dp3595
g7
I8
sg8
I130
sg9
I5
sg10
I7966
sg11
I3503
sg12
g1034
sa(dp3596
g7
I8
sg8
I159
sg9
I6
sg10
I10098
sg11
I3504
sg12
g1038
sa(dp3597
g7
I8
sg8
I139
sg9
I7
sg10
I8574
sg11
I3505
sg12
g1042
sa(dp3598
g7
I8
sg8
I164
sg9
I8
sg10
I10231
sg11
I3506
sg12
g1046
sa(dp3599
g7
I8
sg8
I197
sg9
I11
sg10
I12041
sg11
I3507
sg12
g1050
sa(dp3600
g7
I8
sg8
I189
sg9
I13
sg10
I11599
sg11
I3508
sg12
g1054
sa(dp3601
g7
I8
sg8
I177
sg9
I14
sg10
I11072
sg11
I3509
sg12
g1058
sa(dp3602
g7
I8
sg8
I153
sg9
I15
sg10
I9701
sg11
I3510
sg12
g1062
sa(dp3603
g7
I9
sg8
I103
sg9
I3
sg10
I6220
sg11
I3511
sg12
g1066
sa(dp3604
g7
I9
sg8
I190
sg9
I4
sg10
I11730
sg11
I3512
sg12
g1070
sa(dp3605
g7
I9
sg8
I122
sg9
I5
sg10
I1180
sg11
I3513
sg12
g1074
sa(dp3606
g7
I9
sg8
I196
sg9
I7
sg10
I11938
sg11
I3514
sg12
g1078
sa(dp3607
g7
I9
sg8
I169
sg9
I10
sg10
I10691
sg11
I3515
sg12
g1082
sa(dp3608
g7
I9
sg8
I117
sg9
I11
sg10
I7230
sg11
I3516
sg12
g1086
sa(dp3609
g7
I9
sg8
I128
sg9
I12
sg10
I1513
sg11
I3517
sg12
g1090
sa(dp3610
g7
I9
sg8
I135
sg9
I13
sg10
I8277
sg11
I3518
sg12
g1094
sa(dp3611
g7
I9
sg8
I164
sg9
I14
sg10
I10227
sg11
I3519
sg12
g1098
sa(dp3612
g7
I9
sg8
I137
sg9
I15
sg10
I8400
sg11
I3520
sg12
g1102
sa(dp3613
g7
I10
sg8
I129
sg9
I0
sg10
I7750
sg11
I3521
sg12
g1106
sa(dp3614
g7
I10
sg8
I134
sg9
I1
sg10
I8233
sg11
I3522
sg12
g1110
sa(dp3615
g7
I10
sg8
I134
sg9
I2
sg10
I8197
sg11
I3523
sg12
g1114
sa(dp3616
g7
I10
sg8
I158
sg9
I4
sg10
I10033
sg11
I3524
sg12
g1118
sa(dp3617
g7
I10
sg8
I187
sg9
I5
sg10
I11567
sg11
I3525
sg12
g1122
sa(dp3618
g7
I10
sg8
I156
sg9
I6
sg10
I9823
sg11
I3526
sg12
g1126
sa(dp3619
g7
I10
sg8
I194
sg9
I10
sg10
I11873
sg11
I3527
sg12
g1130
sa(dp3620
g7
I10
sg8
I185
sg9
I11
sg10
I4960
sg11
I3528
sg12
g1134
sa(dp3621
g7
I10
sg8
I139
sg9
I12
sg10
I8630
sg11
I3529
sg12
g1138
sa(dp3622
g7
I10
sg8
I186
sg9
I14
sg10
I11490
sg11
I3530
sg12
g1142
sa(dp3623
g7
I11
sg8
I160
sg9
I2
sg10
I10092
sg11
I3531
sg12
g1146
sa(dp3624
g7
I11
sg8
I189
sg9
I6
sg10
I11670
sg11
I3532
sg12
g1150
sa(dp3625
g7
I11
sg8
I173
sg9
I7
sg10
I10817
sg11
I3533
sg12
g1154
sa(dp3626
g7
I11
sg8
I113
sg9
I8
sg10
I6959
sg11
I3534
sg12
g1158
sa(dp3627
g7
I11
sg8
I130
sg9
I9
sg10
I8060
sg11
I3535
sg12
g1162
sa(dp3628
g7
I11
sg8
I109
sg9
I10
sg10
I6735
sg11
I3536
sg12
g1166
sa(dp3629
g7
I11
sg8
I148
sg9
I11
sg10
I9028
sg11
I3537
sg12
g1170
sa(dp3630
g7
I11
sg8
I154
sg9
I12
sg10
I3291
sg11
I3538
sg12
g1174
sa(dp3631
g7
I11
sg8
I157
sg9
I13
sg10
I9967
sg11
I3539
sg12
g1178
sa(dp3632
g7
I12
sg8
I194
sg9
I0
sg10
I11853
sg11
I3540
sg12
g1182
sa(dp3633
g7
I12
sg8
I180
sg9
I2
sg10
I11063
sg11
I3541
sg12
g1186
sa(dp3634
g7
I12
sg8
I165
sg9
I4
sg10
I10272
sg11
I3542
sg12
g1190
sa(dp3635
g7
I12
sg8
I129
sg9
I5
sg10
I7843
sg11
I3543
sg12
g1194
sa(dp3636
g7
I12
sg8
I114
sg9
I6
sg10
I6986
sg11
I3544
sg12
g1198
sa(dp3637
g7
I12
sg8
I103
sg9
I8
sg10
I6286
sg11
I3545
sg12
g1202
sa(dp3638
g7
I12
sg8
I146
sg9
I9
sg10
I2760
sg11
I3546
sg12
g1206
sa(dp3639
g7
I12
sg8
I109
sg9
I13
sg10
I6749
sg11
I3547
sg12
g1210
sa(dp3640
g7
I12
sg8
I101
sg9
I14
sg10
I6089
sg11
I3548
sg12
g1214
sa(dp3641
g7
I13
sg8
I157
sg9
I1
sg10
I3476
sg11
I3549
sg12
g1218
sa(dp3642
g7
I13
sg8
I140
sg9
I2
sg10
I8575
sg11
I3550
sg12
g1222
sa(dp3643
g7
I13
sg8
I152
sg9
I3
sg10
I9480
sg11
I3551
sg12
g1226
sa(dp3644
g7
I13
sg8
I149
sg9
I4
sg10
I9244
sg11
I3552
sg12
g1230
sa(dp3645
g7
I13
sg8
I190
sg9
I6
sg10
I11783
sg11
I3553
sg12
g1234
sa(dp3646
g7
I13
sg8
I140
sg9
I7
sg10
I8614
sg11
I3554
sg12
g1238
sa(dp3647
g7
I13
sg8
I166
sg9
I8
sg10
I10309
sg11
I3555
sg12
g1242
sa(dp3648
g7
I13
sg8
I120
sg9
I9
sg10
I7289
sg11
I3556
sg12
g1246
sa(dp3649
g7
I13
sg8
I195
sg9
I11
sg10
I5705
sg11
I3557
sg12
g1250
sa(dp3650
g7
I13
sg8
I124
sg9
I13
sg10
I7516
sg11
I3558
sg12
g1254
sa(dp3651
g7
I13
sg8
I129
sg9
I14
sg10
I1559
sg11
I3559
sg12
g1258
sa(dp3652
g7
I13
sg8
I153
sg9
I15
sg10
I3229
sg11
I3560
sg12
g1262
sa(dp3653
g7
I14
sg8
I192
sg9
I1
sg10
I11829
sg11
I3561
sg12
g1266
sa(dp3654
g7
I14
sg8
I138
sg9
I2
sg10
I8434
sg11
I3562
sg12
g1270
sa(dp3655
g7
I14
sg8
I185
sg9
I3
sg10
I11481
sg11
I3563
sg12
g1274
sa(dp3656
g7
I14
sg8
I110
sg9
I6
sg10
I6878
sg11
I3564
sg12
g1278
sa(dp3657
g7
I14
sg8
I102
sg9
I7
sg10
I6159
sg11
I3565
sg12
g1282
sa(dp3658
g7
I14
sg8
I183
sg9
I10
sg10
I11214
sg11
I3566
sg12
g1286
sa(dp3659
g7
I14
sg8
I173
sg9
I11
sg10
I10839
sg11
I3567
sg12
g1290
sa(dp3660
g7
I14
sg8
I185
sg9
I12
sg10
I11388
sg11
I3568
sg12
g1294
sa(dp3661
g7
I14
sg8
I136
sg9
I14
sg10
I8387
sg11
I3569
sg12
g1298
sa(dp3662
g7
I15
sg8
I141
sg9
I0
sg10
I544
sg11
I3570
sg12
g1302
sa(dp3663
g7
I15
sg8
I119
sg9
I1
sg10
I573
sg11
I3571
sg12
g1306
sa(dp3664
g7
I15
sg8
I104
sg9
I2
sg10
I686
sg11
I3572
sg12
g1310
sa(dp3665
g7
I15
sg8
I186
sg9
I3
sg10
I607
sg11
I3573
sg12
g1314
sa(dp3666
g7
I15
sg8
I135
sg9
I5
sg10
I815
sg11
I3574
sg12
g1318
sa(dp3667
g7
I15
sg8
I149
sg9
I7
sg10
I806
sg11
I3575
sg12
g1322
sa(dp3668
g7
I15
sg8
I160
sg9
I8
sg10
I797
sg11
I3576
sg12
g1326
sa(dp3669
g7
I15
sg8
I128
sg9
I9
sg10
I853
sg11
I3577
sg12
g1330
sa(dp3670
g7
I15
sg8
I114
sg9
I10
sg10
I1027
sg11
I3578
sg12
g1334
sa(dp3671
g7
I15
sg8
I195
sg9
I13
sg10
I959
sg11
I3579
sg12
g1338
sa(dp3672
g7
I15
sg8
I144
sg9
I14
sg10
I1057
sg11
I3580
sg12
g1342
sa(dp3673
g7
I15
sg8
I146
sg9
I15
sg10
I1067
sg11
I3581
sg12
g1346
sa(dp3674
g7
I0
sg8
I246
sg9
I0
sg10
I15023
sg11
I3582
sg12
g1350
sa(dp3675
g7
I0
sg8
I216
sg9
I1
sg10
I13010
sg11
I3583
sg12
g1354
sa(dp3676
g7
I0
sg8
I284
sg9
I3
sg10
I17392
sg11
I3584
sg12
g1358
sa(dp3677
g7
I0
sg8
I229
sg9
I4
sg10
I1458
sg11
I3585
sg12
g1362
sa(dp3678
g7
I0
sg8
I273
sg9
I5
sg10
I16894
sg11
I3586
sg12
g1366
sa(dp3679
g7
I0
sg8
I261
sg9
I7
sg10
I16187
sg11
I3587
sg12
g1370
sa(dp3680
g7
I0
sg8
I281
sg9
I8
sg10
I17186
sg11
I3588
sg12
g1374
sa(dp3681
g7
I0
sg8
I240
sg9
I10
sg10
I8470
sg11
I3589
sg12
g1378
sa(dp3682
g7
I0
sg8
I270
sg9
I13
sg10
I10636
sg11
I3590
sg12
g1382
sa(dp3683
g7
I1
sg8
I296
sg9
I0
sg10
I18263
sg11
I3591
sg12
g1386
sa(dp3684
g7
I1
sg8
I256
sg9
I1
sg10
I3268
sg11
I3592
sg12
g1390
sa(dp3685
g7
I1
sg8
I224
sg9
I2
sg10
I7284
sg11
I3593
sg12
g1394
sa(dp3686
g7
I1
sg8
I214
sg9
I3
sg10
I12852
sg11
I3594
sg12
g1398
sa(dp3687
g7
I1
sg8
I276
sg9
I4
sg10
I16933
sg11
I3595
sg12
g1402
sa(dp3688
g7
I1
sg8
I219
sg9
I5
sg10
I7185
sg11
I3596
sg12
g1406
sa(dp3689
g7
I1
sg8
I225
sg9
I7
sg10
I13581
sg11
I3597
sg12
g1410
sa(dp3690
g7
I1
sg8
I204
sg9
I10
sg10
I12319
sg11
I3598
sg12
g1414
sa(dp3691
g7
I1
sg8
I204
sg9
I11
sg10
I12226
sg11
I3599
sg12
g1418
sa(dp3692
g7
I1
sg8
I289
sg9
I12
sg10
I17852
sg11
I3600
sg12
g1422
sa(dp3693
g7
I1
sg8
I210
sg9
I14
sg10
I6726
sg11
I3601
sg12
g1426
sa(dp3694
g7
I1
sg8
I254
sg9
I15
sg10
I15669
sg11
I3602
sg12
g1430
sa(dp3695
g7
I2
sg8
I260
sg9
I0
sg10
I16074
sg11
I3603
sg12
g1434
sa(dp3696
g7
I2
sg8
I207
sg9
I1
sg10
I12428
sg11
I3604
sg12
g1438
sa(dp3697
g7
I2
sg8
I268
sg9
I2
sg10
I10452
sg11
I3605
sg12
g1442
sa(dp3698
g7
I2
sg8
I255
sg9
I3
sg10
I15711
sg11
I3606
sg12
g1446
sa(dp3699
g7
I2
sg8
I229
sg9
I5
sg10
I13869
sg11
I3607
sg12
g1450
sa(dp3700
g7
I2
sg8
I238
sg9
I6
sg10
I14469
sg11
I3608
sg12
g1454
sa(dp3701
g7
I2
sg8
I222
sg9
I8
sg10
I13437
sg11
I3609
sg12
g1458
sa(dp3702
g7
I2
sg8
I216
sg9
I9
sg10
I802
sg11
I3610
sg12
g1462
sa(dp3703
g7
I2
sg8
I248
sg9
I10
sg10
I8920
sg11
I3611
sg12
g1466
sa(dp3704
g7
I2
sg8
I298
sg9
I11
sg10
I18325
sg11
I3612
sg12
g1470
sa(dp3705
g7
I2
sg8
I223
sg9
I13
sg10
I13401
sg11
I3613
sg12
g1474
sa(dp3706
g7
I2
sg8
I248
sg9
I14
sg10
I15051
sg11
I3614
sg12
g1478
sa(dp3707
g7
I2
sg8
I280
sg9
I15
sg10
I17072
sg11
I3615
sg12
g1482
sa(dp3708
g7
I3
sg8
I217
sg9
I2
sg10
I7020
sg11
I3616
sg12
g1486
sa(dp3709
g7
I3
sg8
I213
sg9
I6
sg10
I12858
sg11
I3617
sg12
g1490
sa(dp3710
g7
I3
sg8
I286
sg9
I8
sg10
I17690
sg11
I3618
sg12
g1494
sa(dp3711
g7
I3
sg8
I260
sg9
I9
sg10
I16056
sg11
I3619
sg12
g1498
sa(dp3712
g7
I3
sg8
I283
sg9
I10
sg10
I17228
sg11
I3620
sg12
g1502
sa(dp3713
g7
I3
sg8
I272
sg9
I11
sg10
I16774
sg11
I3621
sg12
g1506
sa(dp3714
g7
I3
sg8
I270
sg9
I12
sg10
I16727
sg11
I3622
sg12
g1510
sa(dp3715
g7
I3
sg8
I224
sg9
I13
sg10
I13508
sg11
I3623
sg12
g1514
sa(dp3716
g7
I3
sg8
I221
sg9
I14
sg10
I13313
sg11
I3624
sg12
g1518
sa(dp3717
g7
I3
sg8
I208
sg9
I15
sg10
I12566
sg11
I3625
sg12
g1522
sa(dp3718
g7
I4
sg8
I243
sg9
I0
sg10
I14698
sg11
I3626
sg12
g1526
sa(dp3719
g7
I4
sg8
I206
sg9
I1
sg10
I6390
sg11
I3627
sg12
g1530
sa(dp3720
g7
I4
sg8
I218
sg9
I2
sg10
I7182
sg11
I3628
sg12
g1534
sa(dp3721
g7
I4
sg8
I216
sg9
I3
sg10
I13025
sg11
I3629
sg12
g1538
sa(dp3722
g7
I4
sg8
I254
sg9
I5
sg10
I15675
sg11
I3630
sg12
g1542
sa(dp3723
g7
I4
sg8
I223
sg9
I8
sg10
I13310
sg11
I3631
sg12
g1546
sa(dp3724
g7
I4
sg8
I205
sg9
I11
sg10
I12358
sg11
I3632
sg12
g1550
sa(dp3725
g7
I4
sg8
I240
sg9
I12
sg10
I8479
sg11
I3633
sg12
g1554
sa(dp3726
g7
I4
sg8
I257
sg9
I13
sg10
I15856
sg11
I3634
sg12
g1558
sa(dp3727
g7
I4
sg8
I228
sg9
I14
sg10
I7593
sg11
I3635
sg12
g1562
sa(dp3728
g7
I4
sg8
I243
sg9
I15
sg10
I14730
sg11
I3636
sg12
g1566
sa(dp3729
g7
I5
sg8
I248
sg9
I1
sg10
I15134
sg11
I3637
sg12
g1570
sa(dp3730
g7
I5
sg8
I237
sg9
I2
sg10
I2126
sg11
I3638
sg12
g1574
sa(dp3731
g7
I5
sg8
I238
sg9
I4
sg10
I8329
sg11
I3639
sg12
g1578
sa(dp3732
g7
I5
sg8
I210
sg9
I7
sg10
I495
sg11
I3640
sg12
g1582
sa(dp3733
g7
I5
sg8
I275
sg9
I9
sg10
I17047
sg11
I3641
sg12
g1586
sa(dp3734
g7
I5
sg8
I244
sg9
I12
sg10
I14938
sg11
I3642
sg12
g1590
sa(dp3735
g7
I5
sg8
I203
sg9
I13
sg10
I6085
sg11
I3643
sg12
g1594
sa(dp3736
g7
I5
sg8
I216
sg9
I14
sg10
I13016
sg11
I3644
sg12
g1598
sa(dp3737
g7
I6
sg8
I208
sg9
I0
sg10
I12460
sg11
I3645
sg12
g1602
sa(dp3738
g7
I6
sg8
I266
sg9
I2
sg10
I16426
sg11
I3646
sg12
g1606
sa(dp3739
g7
I6
sg8
I266
sg9
I3
sg10
I16502
sg11
I3647
sg12
g1610
sa(dp3740
g7
I6
sg8
I258
sg9
I4
sg10
I15993
sg11
I3648
sg12
g1614
sa(dp3741
g7
I6
sg8
I203
sg9
I6
sg10
I6101
sg11
I3649
sg12
g1618
sa(dp3742
g7
I6
sg8
I229
sg9
I8
sg10
I13708
sg11
I3650
sg12
g1622
sa(dp3743
g7
I6
sg8
I288
sg9
I9
sg10
I17819
sg11
I3651
sg12
g1626
sa(dp3744
g7
I6
sg8
I219
sg9
I12
sg10
I7182
sg11
I3652
sg12
g1630
sa(dp3745
g7
I6
sg8
I228
sg9
I13
sg10
I7584
sg11
I3653
sg12
g1634
sa(dp3746
g7
I6
sg8
I206
sg9
I15
sg10
I12362
sg11
I3654
sg12
g1638
sa(dp3747
g7
I7
sg8
I251
sg9
I0
sg10
I15346
sg11
I3655
sg12
g1642
sa(dp3748
g7
I7
sg8
I288
sg9
I1
sg10
I11499
sg11
I3656
sg12
g1646
sa(dp3749
g7
I7
sg8
I255
sg9
I5
sg10
I3234
sg11
I3657
sg12
g1650
sa(dp3750
g7
I7
sg8
I280
sg9
I7
sg10
I17160
sg11
I3658
sg12
g1654
sa(dp3751
g7
I7
sg8
I239
sg9
I8
sg10
I2170
sg11
I3659
sg12
g1658
sa(dp3752
g7
I7
sg8
I251
sg9
I9
sg10
I15378
sg11
I3660
sg12
g1662
sa(dp3753
g7
I7
sg8
I230
sg9
I10
sg10
I1685
sg11
I3661
sg12
g1666
sa(dp3754
g7
I7
sg8
I251
sg9
I11
sg10
I15224
sg11
I3662
sg12
g1670
sa(dp3755
g7
I7
sg8
I240
sg9
I13
sg10
I14554
sg11
I3663
sg12
g1674
sa(dp3756
g7
I7
sg8
I209
sg9
I14
sg10
I12675
sg11
I3664
sg12
g1678
sa(dp3757
g7
I7
sg8
I204
sg9
I15
sg10
I12232
sg11
I3665
sg12
g1682
sa(dp3758
g7
I8
sg8
I299
sg9
I1
sg10
I18417
sg11
I3666
sg12
g1686
sa(dp3759
g7
I8
sg8
I283
sg9
I3
sg10
I11079
sg11
I3667
sg12
g1690
sa(dp3760
g7
I8
sg8
I233
sg9
I4
sg10
I14095
sg11
I3668
sg12
g1694
sa(dp3761
g7
I8
sg8
I230
sg9
I5
sg10
I13906
sg11
I3669
sg12
g1698
sa(dp3762
g7
I8
sg8
I259
sg9
I6
sg10
I10006
sg11
I3670
sg12
g1702
sa(dp3763
g7
I8
sg8
I239
sg9
I7
sg10
I14498
sg11
I3671
sg12
g1706
sa(dp3764
g7
I8
sg8
I264
sg9
I8
sg10
I16216
sg11
I3672
sg12
g1710
sa(dp3765
g7
I8
sg8
I297
sg9
I11
sg10
I18297
sg11
I3673
sg12
g1714
sa(dp3766
g7
I8
sg8
I289
sg9
I13
sg10
I17855
sg11
I3674
sg12
g1718
sa(dp3767
g7
I8
sg8
I277
sg9
I14
sg10
I16922
sg11
I3675
sg12
g1722
sa(dp3768
g7
I8
sg8
I253
sg9
I15
sg10
I15603
sg11
I3676
sg12
g1726
sa(dp3769
g7
I9
sg8
I203
sg9
I3
sg10
I12251
sg11
I3677
sg12
g1730
sa(dp3770
g7
I9
sg8
I290
sg9
I4
sg10
I17964
sg11
I3678
sg12
g1734
sa(dp3771
g7
I9
sg8
I222
sg9
I5
sg10
I7248
sg11
I3679
sg12
g1738
sa(dp3772
g7
I9
sg8
I296
sg9
I7
sg10
I18194
sg11
I3680
sg12
g1742
sa(dp3773
g7
I9
sg8
I269
sg9
I10
sg10
I16676
sg11
I3681
sg12
g1746
sa(dp3774
g7
I9
sg8
I217
sg9
I11
sg10
I13121
sg11
I3682
sg12
g1750
sa(dp3775
g7
I9
sg8
I228
sg9
I12
sg10
I7572
sg11
I3683
sg12
g1754
sa(dp3776
g7
I9
sg8
I235
sg9
I13
sg10
I14217
sg11
I3684
sg12
g1758
sa(dp3777
g7
I9
sg8
I264
sg9
I14
sg10
I16210
sg11
I3685
sg12
g1762
sa(dp3778
g7
I9
sg8
I237
sg9
I15
sg10
I14340
sg11
I3686
sg12
g1766
sa(dp3779
g7
I10
sg8
I229
sg9
I0
sg10
I13665
sg11
I3687
sg12
g1770
sa(dp3780
g7
I10
sg8
I234
sg9
I1
sg10
I14173
sg11
I3688
sg12
g1774
sa(dp3781
g7
I10
sg8
I234
sg9
I2
sg10
I14137
sg11
I3689
sg12
g1778
sa(dp3782
g7
I10
sg8
I258
sg9
I4
sg10
I15960
sg11
I3690
sg12
g1782
sa(dp3783
g7
I10
sg8
I287
sg9
I5
sg10
I17721
sg11
I3691
sg12
g1786
sa(dp3784
g7
I10
sg8
I256
sg9
I6
sg10
I15750
sg11
I3692
sg12
g1790
sa(dp3785
g7
I10
sg8
I294
sg9
I10
sg10
I18129
sg11
I3693
sg12
g1794
sa(dp3786
g7
I10
sg8
I285
sg9
I11
sg10
I4861
sg11
I3694
sg12
g1798
sa(dp3787
g7
I10
sg8
I239
sg9
I12
sg10
I14515
sg11
I3695
sg12
g1802
sa(dp3788
g7
I10
sg8
I286
sg9
I14
sg10
I17660
sg11
I3696
sg12
g1806
sa(dp3789
g7
I11
sg8
I260
sg9
I2
sg10
I10006
sg11
I3697
sg12
g1810
sa(dp3790
g7
I11
sg8
I289
sg9
I6
sg10
I17926
sg11
I3698
sg12
g1814
sa(dp3791
g7
I11
sg8
I273
sg9
I7
sg10
I10732
sg11
I3699
sg12
g1818
sa(dp3792
g7
I11
sg8
I213
sg9
I8
sg10
I12864
sg11
I3700
sg12
g1822
sa(dp3793
g7
I11
sg8
I230
sg9
I9
sg10
I14000
sg11
I3701
sg12
g1826
sa(dp3794
g7
I11
sg8
I209
sg9
I10
sg10
I12612
sg11
I3702
sg12
g1830
sa(dp3795
g7
I11
sg8
I248
sg9
I11
sg10
I15131
sg11
I3703
sg12
g1834
sa(dp3796
g7
I11
sg8
I254
sg9
I12
sg10
I3194
sg11
I3704
sg12
g1838
sa(dp3797
g7
I11
sg8
I257
sg9
I13
sg10
I15894
sg11
I3705
sg12
g1842
sa(dp3798
g7
I12
sg8
I294
sg9
I0
sg10
I11764
sg11
I3706
sg12
g1846
sa(dp3799
g7
I12
sg8
I280
sg9
I2
sg10
I11025
sg11
I3707
sg12
g1850
sa(dp3800
g7
I12
sg8
I265
sg9
I4
sg10
I16257
sg11
I3708
sg12
g1854
sa(dp3801
g7
I12
sg8
I229
sg9
I5
sg10
I13811
sg11
I3709
sg12
g1858
sa(dp3802
g7
I12
sg8
I214
sg9
I6
sg10
I12891
sg11
I3710
sg12
g1862
sa(dp3803
g7
I12
sg8
I203
sg9
I8
sg10
I12292
sg11
I3711
sg12
g1866
sa(dp3804
g7
I12
sg8
I246
sg9
I9
sg10
I8785
sg11
I3712
sg12
g1870
sa(dp3805
g7
I12
sg8
I209
sg9
I13
sg10
I12633
sg11
I3713
sg12
g1874
sa(dp3806
g7
I12
sg8
I201
sg9
I14
sg10
I12191
sg11
I3714
sg12
g1878
sa(dp3807
g7
I13
sg8
I257
sg9
I1
sg10
I9773
sg11
I3715
sg12
g1882
sa(dp3808
g7
I13
sg8
I240
sg9
I2
sg10
I14580
sg11
I3716
sg12
g1886
sa(dp3809
g7
I13
sg8
I252
sg9
I3
sg10
I15417
sg11
I3717
sg12
g1890
sa(dp3810
g7
I13
sg8
I249
sg9
I4
sg10
I15181
sg11
I3718
sg12
g1894
sa(dp3811
g7
I13
sg8
I290
sg9
I6
sg10
I18039
sg11
I3719
sg12
g1898
sa(dp3812
g7
I13
sg8
I240
sg9
I7
sg10
I8525
sg11
I3720
sg12
g1902
sa(dp3813
g7
I13
sg8
I266
sg9
I8
sg10
I16294
sg11
I3721
sg12
g1906
sa(dp3814
g7
I13
sg8
I220
sg9
I9
sg10
I13280
sg11
I3722
sg12
g1910
sa(dp3815
g7
I13
sg8
I295
sg9
I11
sg10
I11799
sg11
I3723
sg12
g1914
sa(dp3816
g7
I13
sg8
I224
sg9
I13
sg10
I13473
sg11
I3724
sg12
g1918
sa(dp3817
g7
I13
sg8
I229
sg9
I14
sg10
I1467
sg11
I3725
sg12
g1922
sa(dp3818
g7
I13
sg8
I253
sg9
I15
sg10
I9639
sg11
I3726
sg12
g1926
sa(dp3819
g7
I14
sg8
I292
sg9
I1
sg10
I18085
sg11
I3727
sg12
g1930
sa(dp3820
g7
I14
sg8
I238
sg9
I2
sg10
I14334
sg11
I3728
sg12
g1934
sa(dp3821
g7
I14
sg8
I285
sg9
I3
sg10
I17496
sg11
I3729
sg12
g1938
sa(dp3822
g7
I14
sg8
I210
sg9
I6
sg10
I12783
sg11
I3730
sg12
g1942
sa(dp3823
g7
I14
sg8
I202
sg9
I7
sg10
I12268
sg11
I3731
sg12
g1946
sa(dp3824
g7
I14
sg8
I283
sg9
I10
sg10
I17259
sg11
I3732
sg12
g1950
sa(dp3825
g7
I14
sg8
I273
sg9
I11
sg10
I16824
sg11
I3733
sg12
g1954
sa(dp3826
g7
I14
sg8
I285
sg9
I12
sg10
I17433
sg11
I3734
sg12
g1958
sa(dp3827
g7
I14
sg8
I236
sg9
I14
sg10
I8295
sg11
I3735
sg12
g1962
sa(dp3828
g7
I15
sg8
I241
sg9
I0
sg10
I1028
sg11
I3736
sg12
g1966
sa(dp3829
g7
I15
sg8
I219
sg9
I1
sg10
I1082
sg11
I3737
sg12
g1970
sa(dp3830
g7
I15
sg8
I204
sg9
I2
sg10
I1220
sg11
I3738
sg12
g1974
sa(dp3831
g7
I15
sg8
I286
sg9
I3
sg10
I1141
sg11
I3739
sg12
g1978
sa(dp3832
g7
I15
sg8
I235
sg9
I5
sg10
I1347
sg11
I3740
sg12
g1982
sa(dp3833
g7
I15
sg8
I249
sg9
I7
sg10
I1379
sg11
I3741
sg12
g1986
sa(dp3834
g7
I15
sg8
I260
sg9
I8
sg10
I1324
sg11
I3742
sg12
g1990
sa(dp3835
g7
I15
sg8
I228
sg9
I9
sg10
I1410
sg11
I3743
sg12
g1994
sa(dp3836
g7
I15
sg8
I214
sg9
I10
sg10
I1559
sg11
I3744
sg12
g1998
sa(dp3837
g7
I15
sg8
I295
sg9
I13
sg10
I1491
sg11
I3745
sg12
g2002
sa(dp3838
g7
I15
sg8
I244
sg9
I14
sg10
I1589
sg11
I3746
sg12
g2006
sa(dp3839
g7
I15
sg8
I246
sg9
I15
sg10
I1599
sg11
I3747
sg12
g2010
sa(dp3840
g7
I0
sg8
I346
sg9
I0
sg10
I21261
sg11
I3748
sg12
g2014
sa(dp3841
g7
I0
sg8
I316
sg9
I1
sg10
I12923
sg11
I3749
sg12
g2018
sa(dp3842
g7
I0
sg8
I384
sg9
I3
sg10
I23863
sg11
I3750
sg12
g2022
sa(dp3843
g7
I0
sg8
I329
sg9
I4
sg10
I1363
sg11
I3751
sg12
g2026
sa(dp3844
g7
I0
sg8
I373
sg9
I5
sg10
I23346
sg11
I3752
sg12
g2030
sa(dp3845
g7
I0
sg8
I361
sg9
I7
sg10
I22639
sg11
I3753
sg12
g2034
sa(dp3846
g7
I0
sg8
I381
sg9
I8
sg10
I23574
sg11
I3754
sg12
g2038
sa(dp3847
g7
I0
sg8
I340
sg9
I10
sg10
I8376
sg11
I3755
sg12
g2042
sa(dp3848
g7
I0
sg8
I370
sg9
I13
sg10
I16610
sg11
I3756
sg12
g2046
sa(dp3849
g7
I1
sg8
I396
sg9
I0
sg10
I24696
sg11
I3757
sg12
g2050
sa(dp3850
g7
I1
sg8
I356
sg9
I1
sg10
I3169
sg11
I3758
sg12
g2054
sa(dp3851
g7
I1
sg8
I324
sg9
I2
sg10
I13509
sg11
I3759
sg12
g2058
sa(dp3852
g7
I1
sg8
I314
sg9
I3
sg10
I12755
sg11
I3760
sg12
g2062
sa(dp3853
g7
I1
sg8
I376
sg9
I4
sg10
I23515
sg11
I3761
sg12
g2066
sa(dp3854
g7
I1
sg8
I319
sg9
I5
sg10
I13114
sg11
I3762
sg12
g2070
sa(dp3855
g7
I1
sg8
I325
sg9
I7
sg10
I20114
sg11
I3763
sg12
g2074
sa(dp3856
g7
I1
sg8
I304
sg9
I10
sg10
I18769
sg11
I3764
sg12
g2078
sa(dp3857
g7
I1
sg8
I304
sg9
I11
sg10
I12179
sg11
I3765
sg12
g2082
sa(dp3858
g7
I1
sg8
I389
sg9
I12
sg10
I24322
sg11
I3766
sg12
g2086
sa(dp3859
g7
I1
sg8
I310
sg9
I14
sg10
I12631
sg11
I3767
sg12
g2090
sa(dp3860
g7
I1
sg8
I354
sg9
I15
sg10
I22194
sg11
I3768
sg12
g2094
sa(dp3861
g7
I2
sg8
I360
sg9
I0
sg10
I22526
sg11
I3769
sg12
g2098
sa(dp3862
g7
I2
sg8
I307
sg9
I1
sg10
I18881
sg11
I3770
sg12
g2102
sa(dp3863
g7
I2
sg8
I368
sg9
I2
sg10
I16437
sg11
I3771
sg12
g2106
sa(dp3864
g7
I2
sg8
I355
sg9
I3
sg10
I22238
sg11
I3772
sg12
g2110
sa(dp3865
g7
I2
sg8
I329
sg9
I5
sg10
I20396
sg11
I3773
sg12
g2114
sa(dp3866
g7
I2
sg8
I338
sg9
I6
sg10
I21011
sg11
I3774
sg12
g2118
sa(dp3867
g7
I2
sg8
I322
sg9
I8
sg10
I19947
sg11
I3775
sg12
g2122
sa(dp3868
g7
I2
sg8
I316
sg9
I9
sg10
I703
sg11
I3776
sg12
g2126
sa(dp3869
g7
I2
sg8
I348
sg9
I10
sg10
I14995
sg11
I3777
sg12
g2130
sa(dp3870
g7
I2
sg8
I398
sg9
I11
sg10
I24758
sg11
I3778
sg12
g2134
sa(dp3871
g7
I2
sg8
I323
sg9
I13
sg10
I19911
sg11
I3779
sg12
g2138
sa(dp3872
g7
I2
sg8
I348
sg9
I14
sg10
I21548
sg11
I3780
sg12
g2142
sa(dp3873
g7
I2
sg8
I380
sg9
I15
sg10
I16983
sg11
I3781
sg12
g2146
sa(dp3874
g7
I3
sg8
I317
sg9
I2
sg10
I6927
sg11
I3782
sg12
g2150
sa(dp3875
g7
I3
sg8
I313
sg9
I6
sg10
I19309
sg11
I3783
sg12
g2154
sa(dp3876
g7
I3
sg8
I386
sg9
I8
sg10
I24161
sg11
I3784
sg12
g2158
sa(dp3877
g7
I3
sg8
I360
sg9
I9
sg10
I22502
sg11
I3785
sg12
g2162
sa(dp3878
g7
I3
sg8
I383
sg9
I10
sg10
I23699
sg11
I3786
sg12
g2166
sa(dp3879
g7
I3
sg8
I372
sg9
I11
sg10
I23226
sg11
I3787
sg12
g2170
sa(dp3880
g7
I3
sg8
I370
sg9
I12
sg10
I23179
sg11
I3788
sg12
g2174
sa(dp3881
g7
I3
sg8
I324
sg9
I13
sg10
I19980
sg11
I3789
sg12
g2178
sa(dp3882
g7
I3
sg8
I321
sg9
I14
sg10
I19823
sg11
I3790
sg12
g2182
sa(dp3883
g7
I3
sg8
I308
sg9
I15
sg10
I19019
sg11
I3791
sg12
g2186
sa(dp3884
g7
I4
sg8
I343
sg9
I0
sg10
I21145
sg11
I3792
sg12
g2190
sa(dp3885
g7
I4
sg8
I306
sg9
I1
sg10
I12295
sg11
I3793
sg12
g2194
sa(dp3886
g7
I4
sg8
I318
sg9
I2
sg10
I13070
sg11
I3794
sg12
g2198
sa(dp3887
g7
I4
sg8
I316
sg9
I3
sg10
I19492
sg11
I3795
sg12
g2202
sa(dp3888
g7
I4
sg8
I354
sg9
I5
sg10
I22202
sg11
I3796
sg12
g2206
sa(dp3889
g7
I4
sg8
I323
sg9
I8
sg10
I19819
sg11
I3797
sg12
g2210
sa(dp3890
g7
I4
sg8
I305
sg9
I11
sg10
I18803
sg11
I3798
sg12
g2214
sa(dp3891
g7
I4
sg8
I340
sg9
I12
sg10
I14445
sg11
I3799
sg12
g2218
sa(dp3892
g7
I4
sg8
I357
sg9
I13
sg10
I22408
sg11
I3800
sg12
g2222
sa(dp3893
g7
I4
sg8
I328
sg9
I14
sg10
I13549
sg11
I3801
sg12
g2226
sa(dp3894
g7
I4
sg8
I343
sg9
I15
sg10
I21177
sg11
I3802
sg12
g2230
sa(dp3895
g7
I5
sg8
I348
sg9
I1
sg10
I21470
sg11
I3803
sg12
g2234
sa(dp3896
g7
I5
sg8
I337
sg9
I2
sg10
I8190
sg11
I3804
sg12
g2238
sa(dp3897
g7
I5
sg8
I338
sg9
I4
sg10
I8238
sg11
I3805
sg12
g2242
sa(dp3898
g7
I5
sg8
I310
sg9
I7
sg10
I6614
sg11
I3806
sg12
g2246
sa(dp3899
g7
I5
sg8
I375
sg9
I9
sg10
I23474
sg11
I3807
sg12
g2250
sa(dp3900
g7
I5
sg8
I344
sg9
I12
sg10
I21410
sg11
I3808
sg12
g2254
sa(dp3901
g7
I5
sg8
I303
sg9
I13
sg10
I5987
sg11
I3809
sg12
g2258
sa(dp3902
g7
I5
sg8
I316
sg9
I14
sg10
I19480
sg11
I3810
sg12
g2262
sa(dp3903
g7
I6
sg8
I308
sg9
I0
sg10
I18913
sg11
I3811
sg12
g2266
sa(dp3904
g7
I6
sg8
I366
sg9
I2
sg10
I22878
sg11
I3812
sg12
g2270
sa(dp3905
g7
I6
sg8
I366
sg9
I3
sg10
I22954
sg11
I3813
sg12
g2274
sa(dp3906
g7
I6
sg8
I358
sg9
I4
sg10
I22375
sg11
I3814
sg12
g2278
sa(dp3907
g7
I6
sg8
I303
sg9
I6
sg10
I6019
sg11
I3815
sg12
g2282
sa(dp3908
g7
I6
sg8
I329
sg9
I8
sg10
I20202
sg11
I3816
sg12
g2286
sa(dp3909
g7
I6
sg8
I388
sg9
I9
sg10
I24290
sg11
I3817
sg12
g2290
sa(dp3910
g7
I6
sg8
I319
sg9
I12
sg10
I13110
sg11
I3818
sg12
g2294
sa(dp3911
g7
I6
sg8
I328
sg9
I13
sg10
I13537
sg11
I3819
sg12
g2298
sa(dp3912
g7
I6
sg8
I306
sg9
I15
sg10
I18852
sg11
I3820
sg12
g2302
sa(dp3913
g7
I7
sg8
I351
sg9
I0
sg10
I21873
sg11
I3821
sg12
g2306
sa(dp3914
g7
I7
sg8
I388
sg9
I1
sg10
I17648
sg11
I3822
sg12
g2310
sa(dp3915
g7
I7
sg8
I355
sg9
I5
sg10
I3139
sg11
I3823
sg12
g2314
sa(dp3916
g7
I7
sg8
I380
sg9
I7
sg10
I23666
sg11
I3824
sg12
g2318
sa(dp3917
g7
I7
sg8
I339
sg9
I8
sg10
I8414
sg11
I3825
sg12
g2322
sa(dp3918
g7
I7
sg8
I351
sg9
I9
sg10
I21905
sg11
I3826
sg12
g2326
sa(dp3919
g7
I7
sg8
I330
sg9
I10
sg10
I1587
sg11
I3827
sg12
g2330
sa(dp3920
g7
I7
sg8
I351
sg9
I11
sg10
I21751
sg11
I3828
sg12
g2334
sa(dp3921
g7
I7
sg8
I340
sg9
I13
sg10
I21049
sg11
I3829
sg12
g2338
sa(dp3922
g7
I7
sg8
I309
sg9
I14
sg10
I19128
sg11
I3830
sg12
g2342
sa(dp3923
g7
I7
sg8
I304
sg9
I15
sg10
I12187
sg11
I3831
sg12
g2346
sa(dp3924
g7
I8
sg8
I399
sg9
I1
sg10
I24850
sg11
I3832
sg12
g2350
sa(dp3925
g7
I8
sg8
I383
sg9
I3
sg10
I17119
sg11
I3833
sg12
g2354
sa(dp3926
g7
I8
sg8
I333
sg9
I4
sg10
I20622
sg11
I3834
sg12
g2358
sa(dp3927
g7
I8
sg8
I330
sg9
I5
sg10
I20433
sg11
I3835
sg12
g2362
sa(dp3928
g7
I8
sg8
I359
sg9
I6
sg10
I9914
sg11
I3836
sg12
g2366
sa(dp3929
g7
I8
sg8
I339
sg9
I7
sg10
I14412
sg11
I3837
sg12
g2370
sa(dp3930
g7
I8
sg8
I364
sg9
I8
sg10
I22668
sg11
I3838
sg12
g2374
sa(dp3931
g7
I8
sg8
I397
sg9
I11
sg10
I24730
sg11
I3839
sg12
g2378
sa(dp3932
g7
I8
sg8
I389
sg9
I13
sg10
I24326
sg11
I3840
sg12
g2382
sa(dp3933
g7
I8
sg8
I377
sg9
I14
sg10
I23541
sg11
I3841
sg12
g2386
sa(dp3934
g7
I8
sg8
I353
sg9
I15
sg10
I22130
sg11
I3842
sg12
g2390
sa(dp3935
g7
I9
sg8
I303
sg9
I3
sg10
I12188
sg11
I3843
sg12
g2394
sa(dp3936
g7
I9
sg8
I390
sg9
I4
sg10
I17931
sg11
I3844
sg12
g2398
sa(dp3937
g7
I9
sg8
I322
sg9
I5
sg10
I7152
sg11
I3845
sg12
g2402
sa(dp3938
g7
I9
sg8
I396
sg9
I7
sg10
I24627
sg11
I3846
sg12
g2406
sa(dp3939
g7
I9
sg8
I369
sg9
I10
sg10
I23128
sg11
I3847
sg12
g2410
sa(dp3940
g7
I9
sg8
I317
sg9
I11
sg10
I19631
sg11
I3848
sg12
g2414
sa(dp3941
g7
I9
sg8
I328
sg9
I12
sg10
I7481
sg11
I3849
sg12
g2418
sa(dp3942
g7
I9
sg8
I335
sg9
I13
sg10
I20744
sg11
I3850
sg12
g2422
sa(dp3943
g7
I9
sg8
I364
sg9
I14
sg10
I16115
sg11
I3851
sg12
g2426
sa(dp3944
g7
I9
sg8
I337
sg9
I15
sg10
I20866
sg11
I3852
sg12
g2430
sa(dp3945
g7
I10
sg8
I329
sg9
I0
sg10
I20217
sg11
I3853
sg12
g2434
sa(dp3946
g7
I10
sg8
I334
sg9
I1
sg10
I20700
sg11
I3854
sg12
g2438
sa(dp3947
g7
I10
sg8
I334
sg9
I2
sg10
I20664
sg11
I3855
sg12
g2442
sa(dp3948
g7
I10
sg8
I358
sg9
I4
sg10
I22342
sg11
I3856
sg12
g2446
sa(dp3949
g7
I10
sg8
I387
sg9
I5
sg10
I24192
sg11
I3857
sg12
g2450
sa(dp3950
g7
I10
sg8
I356
sg9
I6
sg10
I22277
sg11
I3858
sg12
g2454
sa(dp3951
g7
I10
sg8
I394
sg9
I10
sg10
I24600
sg11
I3859
sg12
g2458
sa(dp3952
g7
I10
sg8
I385
sg9
I11
sg10
I4762
sg11
I3860
sg12
g2462
sa(dp3953
g7
I10
sg8
I339
sg9
I12
sg10
I20912
sg11
I3861
sg12
g2466
sa(dp3954
g7
I10
sg8
I386
sg9
I14
sg10
I24121
sg11
I3862
sg12
g2470
sa(dp3955
g7
I11
sg8
I360
sg9
I2
sg10
I15955
sg11
I3863
sg12
g2474
sa(dp3956
g7
I11
sg8
I389
sg9
I6
sg10
I24397
sg11
I3864
sg12
g2478
sa(dp3957
g7
I11
sg8
I373
sg9
I7
sg10
I16706
sg11
I3865
sg12
g2482
sa(dp3958
g7
I11
sg8
I313
sg9
I8
sg10
I19317
sg11
I3866
sg12
g2486
sa(dp3959
g7
I11
sg8
I330
sg9
I9
sg10
I20527
sg11
I3867
sg12
g2490
sa(dp3960
g7
I11
sg8
I309
sg9
I10
sg10
I12569
sg11
I3868
sg12
g2494
sa(dp3961
g7
I11
sg8
I348
sg9
I11
sg10
I21466
sg11
I3869
sg12
g2498
sa(dp3962
g7
I11
sg8
I354
sg9
I12
sg10
I9305
sg11
I3870
sg12
g2502
sa(dp3963
g7
I11
sg8
I357
sg9
I13
sg10
I22446
sg11
I3871
sg12
g2506
sa(dp3964
g7
I12
sg8
I394
sg9
I0
sg10
I18010
sg11
I3872
sg12
g2510
sa(dp3965
g7
I12
sg8
I380
sg9
I2
sg10
I16979
sg11
I3873
sg12
g2514
sa(dp3966
g7
I12
sg8
I365
sg9
I4
sg10
I22709
sg11
I3874
sg12
g2518
sa(dp3967
g7
I12
sg8
I329
sg9
I5
sg10
I20310
sg11
I3875
sg12
g2522
sa(dp3968
g7
I12
sg8
I314
sg9
I6
sg10
I19344
sg11
I3876
sg12
g2526
sa(dp3969
g7
I12
sg8
I303
sg9
I8
sg10
I18644
sg11
I3877
sg12
g2530
sa(dp3970
g7
I12
sg8
I346
sg9
I9
sg10
I8690
sg11
I3878
sg12
g2534
sa(dp3971
g7
I12
sg8
I309
sg9
I13
sg10
I19065
sg11
I3879
sg12
g2538
sa(dp3972
g7
I12
sg8
I301
sg9
I14
sg10
I18447
sg11
I3880
sg12
g2542
sa(dp3973
g7
I13
sg8
I357
sg9
I1
sg10
I9709
sg11
I3881
sg12
g2546
sa(dp3974
g7
I13
sg8
I340
sg9
I2
sg10
I21075
sg11
I3882
sg12
g2550
sa(dp3975
g7
I13
sg8
I352
sg9
I3
sg10
I21944
sg11
I3883
sg12
g2554
sa(dp3976
g7
I13
sg8
I349
sg9
I4
sg10
I21708
sg11
I3884
sg12
g2558
sa(dp3977
g7
I13
sg8
I390
sg9
I6
sg10
I24510
sg11
I3885
sg12
g2562
sa(dp3978
g7
I13
sg8
I340
sg9
I7
sg10
I14446
sg11
I3886
sg12
g2566
sa(dp3979
g7
I13
sg8
I366
sg9
I8
sg10
I22746
sg11
I3887
sg12
g2570
sa(dp3980
g7
I13
sg8
I320
sg9
I9
sg10
I19790
sg11
I3888
sg12
g2574
sa(dp3981
g7
I13
sg8
I395
sg9
I11
sg10
I11704
sg11
I3889
sg12
g2578
sa(dp3982
g7
I13
sg8
I324
sg9
I13
sg10
I20018
sg11
I3890
sg12
g2582
sa(dp3983
g7
I13
sg8
I329
sg9
I14
sg10
I1375
sg11
I3891
sg12
g2586
sa(dp3984
g7
I13
sg8
I353
sg9
I15
sg10
I15541
sg11
I3892
sg12
g2590
sa(dp3985
g7
I14
sg8
I392
sg9
I1
sg10
I24556
sg11
I3893
sg12
g2594
sa(dp3986
g7
I14
sg8
I338
sg9
I2
sg10
I20901
sg11
I3894
sg12
g2598
sa(dp3987
g7
I14
sg8
I385
sg9
I3
sg10
I23967
sg11
I3895
sg12
g2602
sa(dp3988
g7
I14
sg8
I310
sg9
I6
sg10
I19236
sg11
I3896
sg12
g2606
sa(dp3989
g7
I14
sg8
I302
sg9
I7
sg10
I18492
sg11
I3897
sg12
g2610
sa(dp3990
g7
I14
sg8
I383
sg9
I10
sg10
I23730
sg11
I3898
sg12
g2614
sa(dp3991
g7
I14
sg8
I373
sg9
I11
sg10
I23276
sg11
I3899
sg12
g2618
sa(dp3992
g7
I14
sg8
I385
sg9
I12
sg10
I23904
sg11
I3900
sg12
g2622
sa(dp3993
g7
I14
sg8
I336
sg9
I14
sg10
I14269
sg11
I3901
sg12
g2626
sa(dp3994
g7
I15
sg8
I341
sg9
I0
sg10
I1535
sg11
I3902
sg12
g2630
sa(dp3995
g7
I15
sg8
I319
sg9
I1
sg10
I1564
sg11
I3903
sg12
g2634
sa(dp3996
g7
I15
sg8
I304
sg9
I2
sg10
I1702
sg11
I3904
sg12
g2638
sa(dp3997
g7
I15
sg8
I386
sg9
I3
sg10
I1623
sg11
I3905
sg12
g2642
sa(dp3998
g7
I15
sg8
I335
sg9
I5
sg10
I1779
sg11
I3906
sg12
g2646
sa(dp3999
g7
I15
sg8
I349
sg9
I7
sg10
I1795
sg11
I3907
sg12
g2650
sa(dp4000
g7
I15
sg8
I360
sg9
I8
sg10
I1786
sg11
I3908
sg12
g2654
sa(dp4001
g7
I15
sg8
I328
sg9
I9
sg10
I1892
sg11
I3909
sg12
g2658
sa(dp4002
g7
I15
sg8
I314
sg9
I10
sg10
I2041
sg11
I3910
sg12
g2662
sa(dp4003
g7
I15
sg8
I395
sg9
I13
sg10
I1998
sg11
I3911
sg12
g2666
sa(dp4004
g7
I15
sg8
I344
sg9
I14
sg10
I2096
sg11
I3912
sg12
g2670
sa(dp4005
g7
I15
sg8
I346
sg9
I15
sg10
I2106
sg11
I3913
sg12
g2674
sa(dp4006
g7
I0
sg8
I446
sg9
I0
sg10
I27293
sg11
I3914
sg12
g2678
sa(dp4007
g7
I0
sg8
I416
sg9
I1
sg10
I19385
sg11
I3915
sg12
g2682
sa(dp4008
g7
I0
sg8
I484
sg9
I3
sg10
I29933
sg11
I3916
sg12
g2686
sa(dp4009
g7
I0
sg8
I429
sg9
I4
sg10
I1268
sg11
I3917
sg12
g2690
sa(dp4010
g7
I0
sg8
I473
sg9
I5
sg10
I29418
sg11
I3918
sg12
g2694
sa(dp4011
g7
I0
sg8
I461
sg9
I7
sg10
I28776
sg11
I3919
sg12
g2698
sa(dp4012
g7
I0
sg8
I481
sg9
I8
sg10
I29726
sg11
I3920
sg12
g2702
sa(dp4013
g7
I0
sg8
I440
sg9
I10
sg10
I8282
sg11
I3921
sg12
g2706
sa(dp4014
g7
I0
sg8
I470
sg9
I13
sg10
I16526
sg11
I3922
sg12
g2710
sa(dp4015
g7
I1
sg8
I496
sg9
I0
sg10
I30664
sg11
I3923
sg12
g2714
sa(dp4016
g7
I1
sg8
I456
sg9
I1
sg10
I3070
sg11
I3924
sg12
g2718
sa(dp4017
g7
I1
sg8
I424
sg9
I2
sg10
I19872
sg11
I3925
sg12
g2722
sa(dp4018
g7
I1
sg8
I414
sg9
I3
sg10
I12658
sg11
I3926
sg12
g2726
sa(dp4019
g7
I1
sg8
I476
sg9
I4
sg10
I29587
sg11
I3927
sg12
g2730
sa(dp4020
g7
I1
sg8
I419
sg9
I5
sg10
I19624
sg11
I3928
sg12
g2734
sa(dp4021
g7
I1
sg8
I425
sg9
I7
sg10
I26384
sg11
I3929
sg12
g2738
sa(dp4022
g7
I1
sg8
I404
sg9
I10
sg10
I25086
sg11
I3930
sg12
g2742
sa(dp4023
g7
I1
sg8
I404
sg9
I11
sg10
I18609
sg11
I3931
sg12
g2746
sa(dp4024
g7
I1
sg8
I489
sg9
I12
sg10
I30289
sg11
I3932
sg12
g2750
sa(dp4025
g7
I1
sg8
I410
sg9
I14
sg10
I19084
sg11
I3933
sg12
g2754
sa(dp4026
g7
I1
sg8
I454
sg9
I15
sg10
I22102
sg11
I3934
sg12
g2758
sa(dp4027
g7
I2
sg8
I460
sg9
I0
sg10
I28663
sg11
I3935
sg12
g2762
sa(dp4028
g7
I2
sg8
I407
sg9
I1
sg10
I25198
sg11
I3936
sg12
g2766
sa(dp4029
g7
I2
sg8
I468
sg9
I2
sg10
I22889
sg11
I3937
sg12
g2770
sa(dp4030
g7
I2
sg8
I455
sg9
I3
sg10
I28300
sg11
I3938
sg12
g2774
sa(dp4031
g7
I2
sg8
I429
sg9
I5
sg10
I26598
sg11
I3939
sg12
g2778
sa(dp4032
g7
I2
sg8
I438
sg9
I6
sg10
I27158
sg11
I3940
sg12
g2782
sa(dp4033
g7
I2
sg8
I422
sg9
I8
sg10
I26093
sg11
I3941
sg12
g2786
sa(dp4034
g7
I2
sg8
I416
sg9
I9
sg10
I604
sg11
I3942
sg12
g2790
sa(dp4035
g7
I2
sg8
I448
sg9
I10
sg10
I14948
sg11
I3943
sg12
g2794
sa(dp4036
g7
I2
sg8
I498
sg9
I11
sg10
I30726
sg11
I3944
sg12
g2798
sa(dp4037
g7
I2
sg8
I423
sg9
I13
sg10
I26216
sg11
I3945
sg12
g2802
sa(dp4038
g7
I2
sg8
I448
sg9
I14
sg10
I27395
sg11
I3946
sg12
g2806
sa(dp4039
g7
I2
sg8
I480
sg9
I15
sg10
I16894
sg11
I3947
sg12
g2810
sa(dp4040
g7
I3
sg8
I417
sg9
I2
sg10
I12807
sg11
I3948
sg12
g2814
sa(dp4041
g7
I3
sg8
I413
sg9
I6
sg10
I25559
sg11
I3949
sg12
g2818
sa(dp4042
g7
I3
sg8
I486
sg9
I8
sg10
I30231
sg11
I3950
sg12
g2822
sa(dp4043
g7
I3
sg8
I460
sg9
I9
sg10
I22421
sg11
I3951
sg12
g2826
sa(dp4044
g7
I3
sg8
I483
sg9
I10
sg10
I29769
sg11
I3952
sg12
g2830
sa(dp4045
g7
I3
sg8
I472
sg9
I11
sg10
I29298
sg11
I3953
sg12
g2834
sa(dp4046
g7
I3
sg8
I470
sg9
I12
sg10
I29139
sg11
I3954
sg12
g2838
sa(dp4047
g7
I3
sg8
I424
sg9
I13
sg10
I26288
sg11
I3955
sg12
g2842
sa(dp4048
g7
I3
sg8
I421
sg9
I14
sg10
I26059
sg11
I3956
sg12
g2846
sa(dp4049
g7
I3
sg8
I408
sg9
I15
sg10
I25336
sg11
I3957
sg12
g2850
sa(dp4050
g7
I4
sg8
I443
sg9
I0
sg10
I27354
sg11
I3958
sg12
g2854
sa(dp4051
g7
I4
sg8
I406
sg9
I1
sg10
I18740
sg11
I3959
sg12
g2858
sa(dp4052
g7
I4
sg8
I418
sg9
I2
sg10
I19580
sg11
I3960
sg12
g2862
sa(dp4053
g7
I4
sg8
I416
sg9
I3
sg10
I25744
sg11
I3961
sg12
g2866
sa(dp4054
g7
I4
sg8
I454
sg9
I5
sg10
I28254
sg11
I3962
sg12
g2870
sa(dp4055
g7
I4
sg8
I423
sg9
I8
sg10
I26123
sg11
I3963
sg12
g2874
sa(dp4056
g7
I4
sg8
I405
sg9
I11
sg10
I25120
sg11
I3964
sg12
g2878
sa(dp4057
g7
I4
sg8
I440
sg9
I12
sg10
I14354
sg11
I3965
sg12
g2882
sa(dp4058
g7
I4
sg8
I457
sg9
I13
sg10
I28445
sg11
I3966
sg12
g2886
sa(dp4059
g7
I4
sg8
I428
sg9
I14
sg10
I13465
sg11
I3967
sg12
g2890
sa(dp4060
g7
I4
sg8
I443
sg9
I15
sg10
I27266
sg11
I3968
sg12
g2894
sa(dp4061
g7
I5
sg8
I448
sg9
I1
sg10
I27459
sg11
I3969
sg12
g2898
sa(dp4062
g7
I5
sg8
I437
sg9
I2
sg10
I8095
sg11
I3970
sg12
g2902
sa(dp4063
g7
I5
sg8
I438
sg9
I4
sg10
I14131
sg11
I3971
sg12
g2906
sa(dp4064
g7
I5
sg8
I410
sg9
I7
sg10
I12508
sg11
I3972
sg12
g2910
sa(dp4065
g7
I5
sg8
I475
sg9
I9
sg10
I29546
sg11
I3973
sg12
g2914
sa(dp4066
g7
I5
sg8
I444
sg9
I12
sg10
I27604
sg11
I3974
sg12
g2918
sa(dp4067
g7
I5
sg8
I403
sg9
I13
sg10
I5889
sg11
I3975
sg12
g2922
sa(dp4068
g7
I5
sg8
I416
sg9
I14
sg10
I25729
sg11
I3976
sg12
g2926
sa(dp4069
g7
I6
sg8
I408
sg9
I0
sg10
I25230
sg11
I3977
sg12
g2930
sa(dp4070
g7
I6
sg8
I466
sg9
I2
sg10
I29015
sg11
I3978
sg12
g2934
sa(dp4071
g7
I6
sg8
I466
sg9
I3
sg10
I29091
sg11
I3979
sg12
g2938
sa(dp4072
g7
I6
sg8
I458
sg9
I4
sg10
I22283
sg11
I3980
sg12
g2942
sa(dp4073
g7
I6
sg8
I403
sg9
I6
sg10
I12031
sg11
I3981
sg12
g2946
sa(dp4074
g7
I6
sg8
I429
sg9
I8
sg10
I26492
sg11
I3982
sg12
g2950
sa(dp4075
g7
I6
sg8
I488
sg9
I9
sg10
I30163
sg11
I3983
sg12
g2954
sa(dp4076
g7
I6
sg8
I419
sg9
I12
sg10
I19619
sg11
I3984
sg12
g2958
sa(dp4077
g7
I6
sg8
I428
sg9
I13
sg10
I13450
sg11
I3985
sg12
g2962
sa(dp4078
g7
I6
sg8
I406
sg9
I15
sg10
I25169
sg11
I3986
sg12
g2966
sa(dp4079
g7
I7
sg8
I451
sg9
I0
sg10
I27925
sg11
I3987
sg12
g2970
sa(dp4080
g7
I7
sg8
I488
sg9
I1
sg10
I24119
sg11
I3988
sg12
g2974
sa(dp4081
g7
I7
sg8
I455
sg9
I5
sg10
I9465
sg11
I3989
sg12
g2978
sa(dp4082
g7
I7
sg8
I480
sg9
I7
sg10
I29701
sg11
I3990
sg12
g2982
sa(dp4083
g7
I7
sg8
I439
sg9
I8
sg10
I8321
sg11
I3991
sg12
g2986
sa(dp4084
g7
I7
sg8
I451
sg9
I9
sg10
I27957
sg11
I3992
sg12
g2990
sa(dp4085
g7
I7
sg8
I430
sg9
I10
sg10
I1489
sg11
I3993
sg12
g2994
sa(dp4086
g7
I7
sg8
I451
sg9
I11
sg10
I27803
sg11
I3994
sg12
g2998
sa(dp4087
g7
I7
sg8
I440
sg9
I13
sg10
I27196
sg11
I3995
sg12
g3002
sa(dp4088
g7
I7
sg8
I409
sg9
I14
sg10
I25534
sg11
I3996
sg12
g3006
sa(dp4089
g7
I7
sg8
I404
sg9
I15
sg10
I18619
sg11
I3997
sg12
g3010
sa(dp4090
g7
I8
sg8
I499
sg9
I1
sg10
I30818
sg11
I3998
sg12
g3014
sa(dp4091
g7
I8
sg8
I483
sg9
I3
sg10
I17025
sg11
I3999
sg12
g3018
sa(dp4092
g7
I8
sg8
I433
sg9
I4
sg10
I26823
sg11
I4000
sg12
g3022
sa(dp4093
g7
I8
sg8
I430
sg9
I5
sg10
I26728
sg11
I4001
sg12
g3026
sa(dp4094
g7
I8
sg8
I459
sg9
I6
sg10
I15824
sg11
I4002
sg12
g3030
sa(dp4095
g7
I8
sg8
I439
sg9
I7
sg10
I20801
sg11
I4003
sg12
g3034
sa(dp4096
g7
I8
sg8
I464
sg9
I8
sg10
I28805
sg11
I4004
sg12
g3038
sa(dp4097
g7
I8
sg8
I497
sg9
I11
sg10
I30698
sg11
I4005
sg12
g3042
sa(dp4098
g7
I8
sg8
I489
sg9
I13
sg10
I30294
sg11
I4006
sg12
g3046
sa(dp4099
g7
I8
sg8
I477
sg9
I14
sg10
I29571
sg11
I4007
sg12
g3050
sa(dp4100
g7
I8
sg8
I453
sg9
I15
sg10
I28182
sg11
I4008
sg12
g3054
sa(dp4101
g7
I9
sg8
I403
sg9
I3
sg10
I18474
sg11
I4009
sg12
g3058
sa(dp4102
g7
I9
sg8
I490
sg9
I4
sg10
I24380
sg11
I4010
sg12
g3062
sa(dp4103
g7
I9
sg8
I422
sg9
I5
sg10
I7056
sg11
I4011
sg12
g3066
sa(dp4104
g7
I9
sg8
I496
sg9
I7
sg10
I24531
sg11
I4012
sg12
g3070
sa(dp4105
g7
I9
sg8
I469
sg9
I10
sg10
I29252
sg11
I4013
sg12
g3074
sa(dp4106
g7
I9
sg8
I417
sg9
I11
sg10
I25883
sg11
I4014
sg12
g3078
sa(dp4107
g7
I9
sg8
I428
sg9
I12
sg10
I7390
sg11
I4015
sg12
g3082
sa(dp4108
g7
I9
sg8
I435
sg9
I13
sg10
I26866
sg11
I4016
sg12
g3086
sa(dp4109
g7
I9
sg8
I464
sg9
I14
sg10
I22565
sg11
I4017
sg12
g3090
sa(dp4110
g7
I9
sg8
I437
sg9
I15
sg10
I27013
sg11
I4018
sg12
g3094
sa(dp4111
g7
I10
sg8
I429
sg9
I0
sg10
I26512
sg11
I4019
sg12
g3098
sa(dp4112
g7
I10
sg8
I434
sg9
I1
sg10
I26903
sg11
I4020
sg12
g3102
sa(dp4113
g7
I10
sg8
I434
sg9
I2
sg10
I26865
sg11
I4021
sg12
g3106
sa(dp4114
g7
I10
sg8
I458
sg9
I4
sg10
I28549
sg11
I4022
sg12
g3110
sa(dp4115
g7
I10
sg8
I487
sg9
I5
sg10
I30262
sg11
I4023
sg12
g3114
sa(dp4116
g7
I10
sg8
I456
sg9
I6
sg10
I28339
sg11
I4024
sg12
g3118
sa(dp4117
g7
I10
sg8
I494
sg9
I10
sg10
I30568
sg11
I4025
sg12
g3122
sa(dp4118
g7
I10
sg8
I485
sg9
I11
sg10
I4663
sg11
I4026
sg12
g3126
sa(dp4119
g7
I10
sg8
I439
sg9
I12
sg10
I27059
sg11
I4027
sg12
g3130
sa(dp4120
g7
I10
sg8
I486
sg9
I14
sg10
I30181
sg11
I4028
sg12
g3134
sa(dp4121
g7
I11
sg8
I460
sg9
I2
sg10
I15869
sg11
I4029
sg12
g3138
sa(dp4122
g7
I11
sg8
I489
sg9
I6
sg10
I30365
sg11
I4030
sg12
g3142
sa(dp4123
g7
I11
sg8
I473
sg9
I7
sg10
I16621
sg11
I4031
sg12
g3146
sa(dp4124
g7
I11
sg8
I413
sg9
I8
sg10
I25569
sg11
I4032
sg12
g3150
sa(dp4125
g7
I11
sg8
I430
sg9
I9
sg10
I26585
sg11
I4033
sg12
g3154
sa(dp4126
g7
I11
sg8
I409
sg9
I10
sg10
I18994
sg11
I4034
sg12
g3158
sa(dp4127
g7
I11
sg8
I448
sg9
I11
sg10
I27288
sg11
I4035
sg12
g3162
sa(dp4128
g7
I11
sg8
I454
sg9
I12
sg10
I9208
sg11
I4036
sg12
g3166
sa(dp4129
g7
I11
sg8
I457
sg9
I13
sg10
I28483
sg11
I4037
sg12
g3170
sa(dp4130
g7
I12
sg8
I494
sg9
I0
sg10
I17921
sg11
I4038
sg12
g3174
sa(dp4131
g7
I12
sg8
I480
sg9
I2
sg10
I23510
sg11
I4039
sg12
g3178
sa(dp4132
g7
I12
sg8
I465
sg9
I4
sg10
I28846
sg11
I4040
sg12
g3182
sa(dp4133
g7
I12
sg8
I429
sg9
I5
sg10
I26691
sg11
I4041
sg12
g3186
sa(dp4134
g7
I12
sg8
I414
sg9
I6
sg10
I25596
sg11
I4042
sg12
g3190
sa(dp4135
g7
I12
sg8
I403
sg9
I8
sg10
I25059
sg11
I4043
sg12
g3194
sa(dp4136
g7
I12
sg8
I446
sg9
I9
sg10
I14762
sg11
I4044
sg12
g3198
sa(dp4137
g7
I12
sg8
I409
sg9
I13
sg10
I25361
sg11
I4045
sg12
g3202
sa(dp4138
g7
I12
sg8
I401
sg9
I14
sg10
I24880
sg11
I4046
sg12
g3206
sa(dp4139
g7
I13
sg8
I457
sg9
I1
sg10
I15590
sg11
I4047
sg12
g3210
sa(dp4140
g7
I13
sg8
I440
sg9
I2
sg10
I20983
sg11
I4048
sg12
g3214
sa(dp4141
g7
I13
sg8
I452
sg9
I3
sg10
I27996
sg11
I4049
sg12
g3218
sa(dp4142
g7
I13
sg8
I449
sg9
I4
sg10
I27760
sg11
I4050
sg12
g3222
sa(dp4143
g7
I13
sg8
I490
sg9
I6
sg10
I30478
sg11
I4051
sg12
g3226
sa(dp4144
g7
I13
sg8
I440
sg9
I7
sg10
I20937
sg11
I4052
sg12
g3230
sa(dp4145
g7
I13
sg8
I466
sg9
I8
sg10
I28883
sg11
I4053
sg12
g3234
sa(dp4146
g7
I13
sg8
I420
sg9
I9
sg10
I26026
sg11
I4054
sg12
g3238
sa(dp4147
g7
I13
sg8
I495
sg9
I11
sg10
I11609
sg11
I4055
sg12
g3242
sa(dp4148
g7
I13
sg8
I424
sg9
I13
sg10
I26253
sg11
I4056
sg12
g3246
sa(dp4149
g7
I13
sg8
I429
sg9
I14
sg10
I7424
sg11
I4057
sg12
g3250
sa(dp4150
g7
I13
sg8
I453
sg9
I15
sg10
I22068
sg11
I4058
sg12
g3254
sa(dp4151
g7
I14
sg8
I492
sg9
I1
sg10
I30524
sg11
I4059
sg12
g3258
sa(dp4152
g7
I14
sg8
I438
sg9
I2
sg10
I27042
sg11
I4060
sg12
g3262
sa(dp4153
g7
I14
sg8
I485
sg9
I3
sg10
I30037
sg11
I4061
sg12
g3266
sa(dp4154
g7
I14
sg8
I410
sg9
I6
sg10
I25418
sg11
I4062
sg12
g3270
sa(dp4155
g7
I14
sg8
I402
sg9
I7
sg10
I24932
sg11
I4063
sg12
g3274
sa(dp4156
g7
I14
sg8
I483
sg9
I10
sg10
I29800
sg11
I4064
sg12
g3278
sa(dp4157
g7
I14
sg8
I473
sg9
I11
sg10
I29348
sg11
I4065
sg12
g3282
sa(dp4158
g7
I14
sg8
I485
sg9
I12
sg10
I29974
sg11
I4066
sg12
g3286
sa(dp4159
g7
I14
sg8
I436
sg9
I14
sg10
I20755
sg11
I4067
sg12
g3290
sa(dp4160
g7
I15
sg8
I441
sg9
I0
sg10
I2042
sg11
I4068
sg12
g3294
sa(dp4161
g7
I15
sg8
I419
sg9
I1
sg10
I2071
sg11
I4069
sg12
g3298
sa(dp4162
g7
I15
sg8
I404
sg9
I2
sg10
I2267
sg11
I4070
sg12
g3302
sa(dp4163
g7
I15
sg8
I486
sg9
I3
sg10
I2090
sg11
I4071
sg12
g3306
sa(dp4164
g7
I15
sg8
I435
sg9
I5
sg10
I2361
sg11
I4072
sg12
g3310
sa(dp4165
g7
I15
sg8
I449
sg9
I7
sg10
I2352
sg11
I4073
sg12
g3314
sa(dp4166
g7
I15
sg8
I460
sg9
I8
sg10
I2343
sg11
I4074
sg12
g3318
sa(dp4167
g7
I15
sg8
I428
sg9
I9
sg10
I2399
sg11
I4075
sg12
g3322
sa(dp4168
g7
I15
sg8
I414
sg9
I10
sg10
I2573
sg11
I4076
sg12
g3326
sa(dp4169
g7
I15
sg8
I495
sg9
I13
sg10
I2530
sg11
I4077
sg12
g3330
sa(dp4170
g7
I15
sg8
I444
sg9
I14
sg10
I2603
sg11
I4078
sg12
g3334
sa(dp4171
g7
I15
sg8
I446
sg9
I15
sg10
I2613
sg11
I4079
sg12
g3338
sass.